   1              		.file	"list.c"
   2              		.text
   3              		.globl	_vListInitialise
   4              		.def	_vListInitialise;	.scl	2;	.type	32;	.endef
   5              	_vListInitialise:
   6              	LFB0:
   7              		.cfi_startproc
   8 0000 55       		pushl	%ebp
   9              		.cfi_def_cfa_offset 8
  10              		.cfi_offset 5, -8
  11 0001 89E5     		movl	%esp, %ebp
  12              		.cfi_def_cfa_register 5
  13 0003 8B4508   		movl	8(%ebp), %eax
  14 0006 8D5008   		leal	8(%eax), %edx
  15 0009 8B4508   		movl	8(%ebp), %eax
  16 000c 895004   		movl	%edx, 4(%eax)
  17 000f 8B4508   		movl	8(%ebp), %eax
  18 0012 C74008FF 		movl	$-1, 8(%eax)
  18      FFFFFF
  19 0019 8B4508   		movl	8(%ebp), %eax
  20 001c 8D5008   		leal	8(%eax), %edx
  21 001f 8B4508   		movl	8(%ebp), %eax
  22 0022 89500C   		movl	%edx, 12(%eax)
  23 0025 8B4508   		movl	8(%ebp), %eax
  24 0028 8D5008   		leal	8(%eax), %edx
  25 002b 8B4508   		movl	8(%ebp), %eax
  26 002e 895010   		movl	%edx, 16(%eax)
  27 0031 8B4508   		movl	8(%ebp), %eax
  28 0034 C7000000 		movl	$0, (%eax)
  28      0000
  29 003a 5D       		popl	%ebp
  30              		.cfi_restore 5
  31              		.cfi_def_cfa 4, 4
  32 003b C3       		ret
  33              		.cfi_endproc
  34              	LFE0:
  35              		.globl	_vListInitialiseItem
  36              		.def	_vListInitialiseItem;	.scl	2;	.type	32;	.endef
  37              	_vListInitialiseItem:
  38              	LFB1:
  39              		.cfi_startproc
  40 003c 55       		pushl	%ebp
  41              		.cfi_def_cfa_offset 8
  42              		.cfi_offset 5, -8
  43 003d 89E5     		movl	%esp, %ebp
  44              		.cfi_def_cfa_register 5
  45 003f 8B4508   		movl	8(%ebp), %eax
  46 0042 C7401000 		movl	$0, 16(%eax)
  46      000000
  47 0049 5D       		popl	%ebp
  48              		.cfi_restore 5
  49              		.cfi_def_cfa 4, 4
  50 004a C3       		ret
  51              		.cfi_endproc
  52              	LFE1:
  53              		.globl	_vListInsertEnd
  54              		.def	_vListInsertEnd;	.scl	2;	.type	32;	.endef
  55              	_vListInsertEnd:
  56              	LFB2:
  57              		.cfi_startproc
  58 004b 55       		pushl	%ebp
  59              		.cfi_def_cfa_offset 8
  60              		.cfi_offset 5, -8
  61 004c 89E5     		movl	%esp, %ebp
  62              		.cfi_def_cfa_register 5
  63 004e 83EC10   		subl	$16, %esp
  64 0051 8B4508   		movl	8(%ebp), %eax
  65 0054 8B4004   		movl	4(%eax), %eax
  66 0057 8945FC   		movl	%eax, -4(%ebp)
  67 005a 8B45FC   		movl	-4(%ebp), %eax
  68 005d 8B5004   		movl	4(%eax), %edx
  69 0060 8B450C   		movl	12(%ebp), %eax
  70 0063 895004   		movl	%edx, 4(%eax)
  71 0066 8B4508   		movl	8(%ebp), %eax
  72 0069 8B5004   		movl	4(%eax), %edx
  73 006c 8B450C   		movl	12(%ebp), %eax
  74 006f 895008   		movl	%edx, 8(%eax)
  75 0072 8B45FC   		movl	-4(%ebp), %eax
  76 0075 8B4004   		movl	4(%eax), %eax
  77 0078 8B550C   		movl	12(%ebp), %edx
  78 007b 895008   		movl	%edx, 8(%eax)
  79 007e 8B45FC   		movl	-4(%ebp), %eax
  80 0081 8B550C   		movl	12(%ebp), %edx
  81 0084 895004   		movl	%edx, 4(%eax)
  82 0087 8B4508   		movl	8(%ebp), %eax
  83 008a 8B550C   		movl	12(%ebp), %edx
  84 008d 895004   		movl	%edx, 4(%eax)
  85 0090 8B450C   		movl	12(%ebp), %eax
  86 0093 8B5508   		movl	8(%ebp), %edx
  87 0096 895010   		movl	%edx, 16(%eax)
  88 0099 8B4508   		movl	8(%ebp), %eax
  89 009c 8B00     		movl	(%eax), %eax
  90 009e 8D5001   		leal	1(%eax), %edx
  91 00a1 8B4508   		movl	8(%ebp), %eax
  92 00a4 8910     		movl	%edx, (%eax)
  93 00a6 C9       		leave
  94              		.cfi_restore 5
  95              		.cfi_def_cfa 4, 4
  96 00a7 C3       		ret
  97              		.cfi_endproc
  98              	LFE2:
  99              		.globl	_vListInsert
 100              		.def	_vListInsert;	.scl	2;	.type	32;	.endef
 101              	_vListInsert:
 102              	LFB3:
 103              		.cfi_startproc
 104 00a8 55       		pushl	%ebp
 105              		.cfi_def_cfa_offset 8
 106              		.cfi_offset 5, -8
 107 00a9 89E5     		movl	%esp, %ebp
 108              		.cfi_def_cfa_register 5
 109 00ab 83EC10   		subl	$16, %esp
 110 00ae 8B450C   		movl	12(%ebp), %eax
 111 00b1 8B00     		movl	(%eax), %eax
 112 00b3 8945F8   		movl	%eax, -8(%ebp)
 113 00b6 837DF8FF 		cmpl	$-1, -8(%ebp)
 114 00ba 750B     		jne	L5
 115 00bc 8B4508   		movl	8(%ebp), %eax
 116 00bf 8B4010   		movl	16(%eax), %eax
 117 00c2 8945FC   		movl	%eax, -4(%ebp)
 118 00c5 EB21     		jmp	L6
 119              	L5:
 120 00c7 8B4508   		movl	8(%ebp), %eax
 121 00ca 83C008   		addl	$8, %eax
 122 00cd 8945FC   		movl	%eax, -4(%ebp)
 123 00d0 EB09     		jmp	L7
 124              	L8:
 125 00d2 8B45FC   		movl	-4(%ebp), %eax
 126 00d5 8B4004   		movl	4(%eax), %eax
 127 00d8 8945FC   		movl	%eax, -4(%ebp)
 128              	L7:
 129 00db 8B45FC   		movl	-4(%ebp), %eax
 130 00de 8B4004   		movl	4(%eax), %eax
 131 00e1 8B00     		movl	(%eax), %eax
 132 00e3 3B45F8   		cmpl	-8(%ebp), %eax
 133 00e6 76EA     		jbe	L8
 134              	L6:
 135 00e8 8B45FC   		movl	-4(%ebp), %eax
 136 00eb 8B5004   		movl	4(%eax), %edx
 137 00ee 8B450C   		movl	12(%ebp), %eax
 138 00f1 895004   		movl	%edx, 4(%eax)
 139 00f4 8B450C   		movl	12(%ebp), %eax
 140 00f7 8B4004   		movl	4(%eax), %eax
 141 00fa 8B550C   		movl	12(%ebp), %edx
 142 00fd 895008   		movl	%edx, 8(%eax)
 143 0100 8B450C   		movl	12(%ebp), %eax
 144 0103 8B55FC   		movl	-4(%ebp), %edx
 145 0106 895008   		movl	%edx, 8(%eax)
 146 0109 8B45FC   		movl	-4(%ebp), %eax
 147 010c 8B550C   		movl	12(%ebp), %edx
 148 010f 895004   		movl	%edx, 4(%eax)
 149 0112 8B450C   		movl	12(%ebp), %eax
 150 0115 8B5508   		movl	8(%ebp), %edx
 151 0118 895010   		movl	%edx, 16(%eax)
 152 011b 8B4508   		movl	8(%ebp), %eax
 153 011e 8B00     		movl	(%eax), %eax
 154 0120 8D5001   		leal	1(%eax), %edx
 155 0123 8B4508   		movl	8(%ebp), %eax
 156 0126 8910     		movl	%edx, (%eax)
 157 0128 C9       		leave
 158              		.cfi_restore 5
 159              		.cfi_def_cfa 4, 4
 160 0129 C3       		ret
 161              		.cfi_endproc
 162              	LFE3:
 163              		.globl	_vListRemove
 164              		.def	_vListRemove;	.scl	2;	.type	32;	.endef
 165              	_vListRemove:
 166              	LFB4:
 167              		.cfi_startproc
 168 012a 55       		pushl	%ebp
 169              		.cfi_def_cfa_offset 8
 170              		.cfi_offset 5, -8
 171 012b 89E5     		movl	%esp, %ebp
 172              		.cfi_def_cfa_register 5
 173 012d 83EC10   		subl	$16, %esp
 174 0130 8B4508   		movl	8(%ebp), %eax
 175 0133 8B4004   		movl	4(%eax), %eax
 176 0136 8B5508   		movl	8(%ebp), %edx
 177 0139 8B5208   		movl	8(%edx), %edx
 178 013c 895008   		movl	%edx, 8(%eax)
 179 013f 8B4508   		movl	8(%ebp), %eax
 180 0142 8B4008   		movl	8(%eax), %eax
 181 0145 8B5508   		movl	8(%ebp), %edx
 182 0148 8B5204   		movl	4(%edx), %edx
 183 014b 895004   		movl	%edx, 4(%eax)
 184 014e 8B4508   		movl	8(%ebp), %eax
 185 0151 8B4010   		movl	16(%eax), %eax
 186 0154 8945FC   		movl	%eax, -4(%ebp)
 187 0157 8B45FC   		movl	-4(%ebp), %eax
 188 015a 8B4004   		movl	4(%eax), %eax
 189 015d 3B4508   		cmpl	8(%ebp), %eax
 190 0160 750C     		jne	L10
 191 0162 8B4508   		movl	8(%ebp), %eax
 192 0165 8B5008   		movl	8(%eax), %edx
 193 0168 8B45FC   		movl	-4(%ebp), %eax
 194 016b 895004   		movl	%edx, 4(%eax)
 195              	L10:
 196 016e 8B4508   		movl	8(%ebp), %eax
 197 0171 C7401000 		movl	$0, 16(%eax)
 197      000000
 198 0178 8B45FC   		movl	-4(%ebp), %eax
 199 017b 8B00     		movl	(%eax), %eax
 200 017d 8D50FF   		leal	-1(%eax), %edx
 201 0180 8B45FC   		movl	-4(%ebp), %eax
 202 0183 8910     		movl	%edx, (%eax)
 203 0185 C9       		leave
 204              		.cfi_restore 5
 205              		.cfi_def_cfa 4, 4
 206 0186 C3       		ret
 207              		.cfi_endproc
 208 0187 90       	LFE4: