   1              		.file	"tasks.c"
   2              		.globl	_bCpuConfigured
   3              		.data
   4              	_bCpuConfigured:
   5 0000 01       		.byte	1
   6              		.globl	_uxTotalTaskNumber
   7 0001 000000   		.bss
   8              		.align 4
   9              	_uxTotalTaskNumber:
  10 0000 00000000 		.space 4
  11              		.comm	_idleCount, 16, 2
  12              	.lcomm _taskInitComplete,2,2
  13              		.comm	_pxCurrentTCB, 16, 2
  14              	.lcomm _cpuTaskCtrl,1584,32
  15              	.lcomm _pcStatusString,50,32
  16              		.text
  17              		.globl	_xTaskGenericCreate
  18              		.def	_xTaskGenericCreate;	.scl	2;	.type	32;	.endef
  19              	_xTaskGenericCreate:
  20              	LFB0:
  21              		.cfi_startproc
  22 0000 55       		pushl	%ebp
  23              		.cfi_def_cfa_offset 8
  24              		.cfi_offset 5, -8
  25 0001 89E5     		movl	%esp, %ebp
  26              		.cfi_def_cfa_register 5
  27 0003 83EC48   		subl	$72, %esp
  28 0006 8B4514   		movl	20(%ebp), %eax
  29 0009 668945E4 		movw	%ax, -28(%ebp)
  30 000d 0FB60500 		movzbl	_bCpuConfigured, %eax
  30      000000
  31 0014 0FB6C0   		movzbl	%al, %eax
  32 0017 3B4508   		cmpl	8(%ebp), %eax
  33 001a 7F07     		jg	L2
  34 001c C7450800 		movl	$0, 8(%ebp)
  34      000000
  35              	L2:
  36 0023 0FB745E4 		movzwl	-28(%ebp), %eax
  37 0027 8B5524   		movl	36(%ebp), %edx
  38 002a 89542404 		movl	%edx, 4(%esp)
  39 002e 890424   		movl	%eax, (%esp)
  40 0031 E82B1E00 		call	_prvAllocateTCBAndStack
  40      00
  41 0036 8945F0   		movl	%eax, -16(%ebp)
  42 0039 837DF000 		cmpl	$0, -16(%ebp)
  43 003d 0F842B02 		je	L3
  43      0000
  44 0043 8B45F0   		movl	-16(%ebp), %eax
  45 0046 8B4030   		movl	48(%eax), %eax
  46 0049 0FB755E4 		movzwl	-28(%ebp), %edx
  47 004d 83EA01   		subl	$1, %edx
  48 0050 C1E202   		sall	$2, %edx
  49 0053 01D0     		addl	%edx, %eax
  50 0055 8945EC   		movl	%eax, -20(%ebp)
  51 0058 8B45EC   		movl	-20(%ebp), %eax
  52 005b 83E0FC   		andl	$-4, %eax
  53 005e 8945EC   		movl	%eax, -20(%ebp)
  54 0061 0FB745E4 		movzwl	-28(%ebp), %eax
  55 0065 89442410 		movl	%eax, 16(%esp)
  56 0069 8B4528   		movl	40(%ebp), %eax
  57 006c 8944240C 		movl	%eax, 12(%esp)
  58 0070 8B451C   		movl	28(%ebp), %eax
  59 0073 89442408 		movl	%eax, 8(%esp)
  60 0077 8B4510   		movl	16(%ebp), %eax
  61 007a 89442404 		movl	%eax, 4(%esp)
  62 007e 8B45F0   		movl	-16(%ebp), %eax
  63 0081 890424   		movl	%eax, (%esp)
  64 0084 E8011B00 		call	_prvInitialiseTCBVariables
  64      00
  65 0089 8B4518   		movl	24(%ebp), %eax
  66 008c 89442408 		movl	%eax, 8(%esp)
  67 0090 8B450C   		movl	12(%ebp), %eax
  68 0093 89442404 		movl	%eax, 4(%esp)
  69 0097 8B45EC   		movl	-20(%ebp), %eax
  70 009a 890424   		movl	%eax, (%esp)
  71 009d E8000000 		call	_pxPortInitialiseStack
  71      00
  72 00a2 8B55F0   		movl	-16(%ebp), %edx
  73 00a5 8902     		movl	%eax, (%edx)
  74 00a7 C7442404 		movl	$0, 4(%esp)
  74      00000000 
  75 00af 8B4508   		movl	8(%ebp), %eax
  76 00b2 890424   		movl	%eax, (%esp)
  77 00b5 E8801100 		call	_vTaskLockTake
  77      00
  78 00ba 8B4508   		movl	8(%ebp), %eax
  79 00bd 69C08C01 		imull	$396, %eax, %eax
  79      0000
  80 00c3 05300100 		addl	$304, %eax
  80      00
  81 00c8 05200000 		addl	$_cpuTaskCtrl, %eax
  81      00
  82 00cd 83C008   		addl	$8, %eax
  83 00d0 890424   		movl	%eax, (%esp)
  84 00d3 E8000000 		call	_atomic32Inc
  84      00
  85 00d8 8B4508   		movl	8(%ebp), %eax
  86 00db 69C08C01 		imull	$396, %eax, %eax
  86      0000
  87 00e1 05500100 		addl	$_cpuTaskCtrl+304, %eax
  87      00
  88 00e6 8B4008   		movl	8(%eax), %eax
  89 00e9 83F801   		cmpl	$1, %eax
  90 00ec 751A     		jne	L4
  91 00ee 8B4508   		movl	8(%ebp), %eax
  92 00f1 8B55F0   		movl	-16(%ebp), %edx
  93 00f4 89148500 		movl	%edx, _pxCurrentTCB(,%eax,4)
  93      000000
  94 00fb 8B4508   		movl	8(%ebp), %eax
  95 00fe 890424   		movl	%eax, (%esp)
  96 0101 E8141B00 		call	_prvInitialiseTaskLists
  96      00
  97 0106 EB41     		jmp	L5
  98              	L4:
  99 0108 8B4508   		movl	8(%ebp), %eax
 100 010b 69C08C01 		imull	$396, %eax, %eax
 100      0000
 101 0111 05400100 		addl	$320, %eax
 101      00
 102 0116 05200000 		addl	$_cpuTaskCtrl, %eax
 102      00
 103 011b 83C008   		addl	$8, %eax
 104 011e 890424   		movl	%eax, (%esp)
 105 0121 E8000000 		call	_atomic32Get
 105      00
 106 0126 85C0     		testl	%eax, %eax
 107 0128 751F     		jne	L5
 108 012a 8B4508   		movl	8(%ebp), %eax
 109 012d 8B048500 		movl	_pxCurrentTCB(,%eax,4), %eax
 109      000000
 110 0134 8B402C   		movl	44(%eax), %eax
 111 0137 3B451C   		cmpl	28(%ebp), %eax
 112 013a 770D     		ja	L5
 113 013c 8B4508   		movl	8(%ebp), %eax
 114 013f 8B55F0   		movl	-16(%ebp), %edx
 115 0142 89148500 		movl	%edx, _pxCurrentTCB(,%eax,4)
 115      000000
 116              	L5:
 117 0149 8B45F0   		movl	-16(%ebp), %eax
 118 014c 8B502C   		movl	44(%eax), %edx
 119 014f 8B4508   		movl	8(%ebp), %eax
 120 0152 69C08C01 		imull	$396, %eax, %eax
 120      0000
 121 0158 05600100 		addl	$_cpuTaskCtrl+320, %eax
 121      00
 122 015d 8B00     		movl	(%eax), %eax
 123 015f 39C2     		cmpl	%eax, %edx
 124 0161 7627     		jbe	L6
 125 0163 8B45F0   		movl	-16(%ebp), %eax
 126 0166 8B402C   		movl	44(%eax), %eax
 127 0169 8B5508   		movl	8(%ebp), %edx
 128 016c 69D28C01 		imull	$396, %edx, %edx
 128      0000
 129 0172 81C24001 		addl	$320, %edx
 129      0000
 130 0178 81C22000 		addl	$_cpuTaskCtrl, %edx
 130      0000
 131 017e 89442404 		movl	%eax, 4(%esp)
 132 0182 891424   		movl	%edx, (%esp)
 133 0185 E8000000 		call	_atomic32Set
 133      00
 134              	L6:
 135 018a 8B4508   		movl	8(%ebp), %eax
 136 018d 69C08C01 		imull	$396, %eax, %eax
 136      0000
 137 0193 05800100 		addl	$_cpuTaskCtrl+352, %eax
 137      00
 138 0198 8B10     		movl	(%eax), %edx
 139 019a 8B45F0   		movl	-16(%ebp), %eax
 140 019d 895048   		movl	%edx, 72(%eax)
 141 01a0 8B4508   		movl	8(%ebp), %eax
 142 01a3 69C08C01 		imull	$396, %eax, %eax
 142      0000
 143 01a9 05600100 		addl	$352, %eax
 143      00
 144 01ae 05200000 		addl	$_cpuTaskCtrl, %eax
 144      00
 145 01b3 890424   		movl	%eax, (%esp)
 146 01b6 E8000000 		call	_atomic32Inc
 146      00
 147 01bb C7042400 		movl	$_uxTotalTaskNumber, (%esp)
 147      000000
 148 01c2 E8000000 		call	_atomic32Inc
 148      00
 149 01c7 8B4508   		movl	8(%ebp), %eax
 150 01ca 89C2     		movl	%eax, %edx
 151 01cc 8B45F0   		movl	-16(%ebp), %eax
 152 01cf 885044   		movb	%dl, 68(%eax)
 153 01d2 8B45F0   		movl	-16(%ebp), %eax
 154 01d5 66C74046 		movw	$1, 70(%eax)
 154      0100
 155 01db 8B45F0   		movl	-16(%ebp), %eax
 156 01de 8B502C   		movl	44(%eax), %edx
 157 01e1 8B4508   		movl	8(%ebp), %eax
 158 01e4 69C08C01 		imull	$396, %eax, %eax
 158      0000
 159 01ea 05600100 		addl	$_cpuTaskCtrl+320, %eax
 159      00
 160 01ef 8B4004   		movl	4(%eax), %eax
 161 01f2 39C2     		cmpl	%eax, %edx
 162 01f4 762A     		jbe	L7
 163 01f6 8B45F0   		movl	-16(%ebp), %eax
 164 01f9 8B402C   		movl	44(%eax), %eax
 165 01fc 8B5508   		movl	8(%ebp), %edx
 166 01ff 69D28C01 		imull	$396, %edx, %edx
 166      0000
 167 0205 81C24001 		addl	$320, %edx
 167      0000
 168 020b 81C22000 		addl	$_cpuTaskCtrl, %edx
 168      0000
 169 0211 83C204   		addl	$4, %edx
 170 0214 89442404 		movl	%eax, 4(%esp)
 171 0218 891424   		movl	%edx, (%esp)
 172 021b E8000000 		call	_atomic32Set
 172      00
 173              	L7:
 174 0220 8B45F0   		movl	-16(%ebp), %eax
 175 0223 8D4804   		leal	4(%eax), %ecx
 176 0226 8B45F0   		movl	-16(%ebp), %eax
 177 0229 8B502C   		movl	44(%eax), %edx
 178 022c 89D0     		movl	%edx, %eax
 179 022e C1E002   		sall	$2, %eax
 180 0231 01D0     		addl	%edx, %eax
 181 0233 C1E002   		sall	$2, %eax
 182 0236 8B5508   		movl	8(%ebp), %edx
 183 0239 69D28C01 		imull	$396, %edx, %edx
 183      0000
 184 023f 01D0     		addl	%edx, %eax
 185 0241 05200000 		addl	$_cpuTaskCtrl, %eax
 185      00
 186 0246 894C2404 		movl	%ecx, 4(%esp)
 187 024a 890424   		movl	%eax, (%esp)
 188 024d E8000000 		call	_vListInsertEnd
 188      00
 189 0252 C745F401 		movl	$1, -12(%ebp)
 189      000000
 190 0259 C7442404 		movl	$0, 4(%esp)
 190      00000000 
 191 0261 8B4508   		movl	8(%ebp), %eax
 192 0264 890424   		movl	%eax, (%esp)
 193 0267 E8FB0F00 		call	_vTaskLockGive
 193      00
 194 026c EB07     		jmp	L8
 195              	L3:
 196 026e C745F4FF 		movl	$-1, -12(%ebp)
 196      FFFFFF
 197              	L8:
 198 0275 837DF401 		cmpl	$1, -12(%ebp)
 199 0279 754E     		jne	L9
 200 027b 837D2000 		cmpl	$0, 32(%ebp)
 201 027f 7408     		je	L10
 202 0281 8B4520   		movl	32(%ebp), %eax
 203 0284 8B55F0   		movl	-16(%ebp), %edx
 204 0287 8910     		movl	%edx, (%eax)
 205              	L10:
 206 0289 8B4508   		movl	8(%ebp), %eax
 207 028c 69C08C01 		imull	$396, %eax, %eax
 207      0000
 208 0292 05400100 		addl	$320, %eax
 208      00
 209 0297 05200000 		addl	$_cpuTaskCtrl, %eax
 209      00
 210 029c 83C008   		addl	$8, %eax
 211 029f 890424   		movl	%eax, (%esp)
 212 02a2 E8000000 		call	_atomic32Get
 212      00
 213 02a7 83F801   		cmpl	$1, %eax
 214 02aa 751D     		jne	L9
 215 02ac 8B4508   		movl	8(%ebp), %eax
 216 02af 8B048500 		movl	_pxCurrentTCB(,%eax,4), %eax
 216      000000
 217 02b6 8B402C   		movl	44(%eax), %eax
 218 02b9 3B451C   		cmpl	28(%ebp), %eax
 219 02bc 730B     		jae	L9
 220 02be 8B4508   		movl	8(%ebp), %eax
 221 02c1 890424   		movl	%eax, (%esp)
 222 02c4 E8000000 		call	_vPortYieldCPU
 222      00
 223              	L9:
 224 02c9 8B45F4   		movl	-12(%ebp), %eax
 225 02cc C9       		leave
 226              		.cfi_restore 5
 227              		.cfi_def_cfa 4, 4
 228 02cd C3       		ret
 229              		.cfi_endproc
 230              	LFE0:
 231              		.globl	_vTaskDelete
 232              		.def	_vTaskDelete;	.scl	2;	.type	32;	.endef
 233              	_vTaskDelete:
 234              	LFB1:
 235              		.cfi_startproc
 236 02ce 55       		pushl	%ebp
 237              		.cfi_def_cfa_offset 8
 238              		.cfi_offset 5, -8
 239 02cf 89E5     		movl	%esp, %ebp
 240              		.cfi_def_cfa_register 5
 241 02d1 83EC28   		subl	$40, %esp
 242 02d4 837D0800 		cmpl	$0, 8(%ebp)
 243 02d8 750A     		jne	L13
 244 02da E8000000 		call	_sPortGetCurrentCPU
 244      00
 245 02df 8945F4   		movl	%eax, -12(%ebp)
 246 02e2 EB0D     		jmp	L14
 247              	L13:
 248 02e4 8B4508   		movl	8(%ebp), %eax
 249 02e7 0FB64044 		movzbl	68(%eax), %eax
 250 02eb 0FB6C0   		movzbl	%al, %eax
 251 02ee 8945F4   		movl	%eax, -12(%ebp)
 252              	L14:
 253 02f1 C7442404 		movl	$0, 4(%esp)
 253      00000000 
 254 02f9 8B45F4   		movl	-12(%ebp), %eax
 255 02fc 890424   		movl	%eax, (%esp)
 256 02ff E8360F00 		call	_vTaskLockTake
 256      00
 257 0304 817D0800 		cmpl	$_pxCurrentTCB, 8(%ebp)
 257      000000
 258 030b 7507     		jne	L15
 259 030d C7450800 		movl	$0, 8(%ebp)
 259      000000
 260              	L15:
 261 0314 837D0800 		cmpl	$0, 8(%ebp)
 262 0318 750C     		jne	L16
 263 031a 8B45F4   		movl	-12(%ebp), %eax
 264 031d 8B048500 		movl	_pxCurrentTCB(,%eax,4), %eax
 264      000000
 265 0324 EB03     		jmp	L17
 266              	L16:
 267 0326 8B4508   		movl	8(%ebp), %eax
 268              	L17:
 269 0329 8945F0   		movl	%eax, -16(%ebp)
 270 032c 8B45F0   		movl	-16(%ebp), %eax
 271 032f 83C004   		addl	$4, %eax
 272 0332 890424   		movl	%eax, (%esp)
 273 0335 E8000000 		call	_vListRemove
 273      00
 274 033a 8B45F0   		movl	-16(%ebp), %eax
 275 033d 8B4028   		movl	40(%eax), %eax
 276 0340 85C0     		testl	%eax, %eax
 277 0342 740E     		je	L18
 278 0344 8B45F0   		movl	-16(%ebp), %eax
 279 0347 83C018   		addl	$24, %eax
 280 034a 890424   		movl	%eax, (%esp)
 281 034d E8000000 		call	_vListRemove
 281      00
 282              	L18:
 283 0352 8B45F0   		movl	-16(%ebp), %eax
 284 0355 8D5004   		leal	4(%eax), %edx
 285 0358 8B45F4   		movl	-12(%ebp), %eax
 286 035b 69C08C01 		imull	$396, %eax, %eax
 286      0000
 287 0361 05000100 		addl	$256, %eax
 287      00
 288 0366 05200000 		addl	$_cpuTaskCtrl, %eax
 288      00
 289 036b 83C00C   		addl	$12, %eax
 290 036e 89542404 		movl	%edx, 4(%esp)
 291 0372 890424   		movl	%eax, (%esp)
 292 0375 E8000000 		call	_vListInsertEnd
 292      00
 293 037a 8B45F4   		movl	-12(%ebp), %eax
 294 037d 69C08C01 		imull	$396, %eax, %eax
 294      0000
 295 0383 05200100 		addl	$288, %eax
 295      00
 296 0388 05200000 		addl	$_cpuTaskCtrl, %eax
 296      00
 297 038d 890424   		movl	%eax, (%esp)
 298 0390 E8000000 		call	_atomic32Inc
 298      00
 299 0395 8B45F4   		movl	-12(%ebp), %eax
 300 0398 69C08C01 		imull	$396, %eax, %eax
 300      0000
 301 039e 05600100 		addl	$352, %eax
 301      00
 302 03a3 05200000 		addl	$_cpuTaskCtrl, %eax
 302      00
 303 03a8 890424   		movl	%eax, (%esp)
 304 03ab E8000000 		call	_atomic32Inc
 304      00
 305 03b0 C7442404 		movl	$0, 4(%esp)
 305      00000000 
 306 03b8 8B45F4   		movl	-12(%ebp), %eax
 307 03bb 890424   		movl	%eax, (%esp)
 308 03be E8A40E00 		call	_vTaskLockGive
 308      00
 309 03c3 8B45F4   		movl	-12(%ebp), %eax
 310 03c6 69C08C01 		imull	$396, %eax, %eax
 310      0000
 311 03cc 05400100 		addl	$320, %eax
 311      00
 312 03d1 05200000 		addl	$_cpuTaskCtrl, %eax
 312      00
 313 03d6 83C008   		addl	$8, %eax
 314 03d9 890424   		movl	%eax, (%esp)
 315 03dc E8000000 		call	_atomic32Get
 315      00
 316 03e1 85C0     		testl	%eax, %eax
 317 03e3 7411     		je	L12
 318 03e5 837D0800 		cmpl	$0, 8(%ebp)
 319 03e9 750B     		jne	L12
 320 03eb 8B45F4   		movl	-12(%ebp), %eax
 321 03ee 890424   		movl	%eax, (%esp)
 322 03f1 E8000000 		call	_vPortYieldCPU
 322      00
 323              	L12:
 324 03f6 C9       		leave
 325              		.cfi_restore 5
 326              		.cfi_def_cfa 4, 4
 327 03f7 C3       		ret
 328              		.cfi_endproc
 329              	LFE1:
 330              		.globl	_vTaskDelayUntil
 331              		.def	_vTaskDelayUntil;	.scl	2;	.type	32;	.endef
 332              	_vTaskDelayUntil:
 333              	LFB2:
 334              		.cfi_startproc
 335 03f8 55       		pushl	%ebp
 336              		.cfi_def_cfa_offset 8
 337              		.cfi_offset 5, -8
 338 03f9 89E5     		movl	%esp, %ebp
 339              		.cfi_def_cfa_register 5
 340 03fb 83EC28   		subl	$40, %esp
 341 03fe C745F400 		movl	$0, -12(%ebp)
 341      000000
 342 0405 E8000000 		call	_sPortGetCurrentCPU
 342      00
 343 040a 8945F0   		movl	%eax, -16(%ebp)
 344 040d 8B45F0   		movl	-16(%ebp), %eax
 345 0410 890424   		movl	%eax, (%esp)
 346 0413 E8470800 		call	_vTaskSuspendCpu
 346      00
 347 0418 8B4508   		movl	8(%ebp), %eax
 348 041b 8B10     		movl	(%eax), %edx
 349 041d 8B450C   		movl	12(%ebp), %eax
 350 0420 01D0     		addl	%edx, %eax
 351 0422 8945EC   		movl	%eax, -20(%ebp)
 352 0425 8B45F0   		movl	-16(%ebp), %eax
 353 0428 69C08C01 		imull	$396, %eax, %eax
 353      0000
 354 042e 05500100 		addl	$_cpuTaskCtrl+304, %eax
 354      00
 355 0433 8B500C   		movl	12(%eax), %edx
 356 0436 8B4508   		movl	8(%ebp), %eax
 357 0439 8B00     		movl	(%eax), %eax
 358 043b 39C2     		cmpl	%eax, %edx
 359 043d 7329     		jae	L21
 360 043f 8B4508   		movl	8(%ebp), %eax
 361 0442 8B00     		movl	(%eax), %eax
 362 0444 3B45EC   		cmpl	-20(%ebp), %eax
 363 0447 7646     		jbe	L22
 364 0449 8B45F0   		movl	-16(%ebp), %eax
 365 044c 69C08C01 		imull	$396, %eax, %eax
 365      0000
 366 0452 05500100 		addl	$_cpuTaskCtrl+304, %eax
 366      00
 367 0457 8B400C   		movl	12(%eax), %eax
 368 045a 3B45EC   		cmpl	-20(%ebp), %eax
 369 045d 7330     		jae	L22
 370 045f C745F401 		movl	$1, -12(%ebp)
 370      000000
 371 0466 EB27     		jmp	L22
 372              	L21:
 373 0468 8B4508   		movl	8(%ebp), %eax
 374 046b 8B00     		movl	(%eax), %eax
 375 046d 3B45EC   		cmpl	-20(%ebp), %eax
 376 0470 7716     		ja	L23
 377 0472 8B45F0   		movl	-16(%ebp), %eax
 378 0475 69C08C01 		imull	$396, %eax, %eax
 378      0000
 379 047b 05500100 		addl	$_cpuTaskCtrl+304, %eax
 379      00
 380 0480 8B400C   		movl	12(%eax), %eax
 381 0483 3B45EC   		cmpl	-20(%ebp), %eax
 382 0486 7307     		jae	L22
 383              	L23:
 384 0488 C745F401 		movl	$1, -12(%ebp)
 384      000000
 385              	L22:
 386 048f 8B4508   		movl	8(%ebp), %eax
 387 0492 8B55EC   		movl	-20(%ebp), %edx
 388 0495 8910     		movl	%edx, (%eax)
 389 0497 837DF400 		cmpl	$0, -12(%ebp)
 390 049b 0F849000 		je	L24
 390      0000
 391 04a1 8B45F0   		movl	-16(%ebp), %eax
 392 04a4 8B048500 		movl	_pxCurrentTCB(,%eax,4), %eax
 392      000000
 393 04ab 83C004   		addl	$4, %eax
 394 04ae 890424   		movl	%eax, (%esp)
 395 04b1 E8000000 		call	_vListRemove
 395      00
 396 04b6 8B45F0   		movl	-16(%ebp), %eax
 397 04b9 8B048500 		movl	_pxCurrentTCB(,%eax,4), %eax
 397      000000
 398 04c0 8B55EC   		movl	-20(%ebp), %edx
 399 04c3 895004   		movl	%edx, 4(%eax)
 400 04c6 8B45F0   		movl	-16(%ebp), %eax
 401 04c9 69C08C01 		imull	$396, %eax, %eax
 401      0000
 402 04cf 05500100 		addl	$_cpuTaskCtrl+304, %eax
 402      00
 403 04d4 8B400C   		movl	12(%eax), %eax
 404 04d7 3B45EC   		cmpl	-20(%ebp), %eax
 405 04da 762C     		jbe	L25
 406 04dc 8B45F0   		movl	-16(%ebp), %eax
 407 04df 8B048500 		movl	_pxCurrentTCB(,%eax,4), %eax
 407      000000
 408 04e6 8D5004   		leal	4(%eax), %edx
 409 04e9 8B45F0   		movl	-16(%ebp), %eax
 410 04ec 69C08C01 		imull	$396, %eax, %eax
 410      0000
 411 04f2 05100100 		addl	$_cpuTaskCtrl+240, %eax
 411      00
 412 04f7 8B4004   		movl	4(%eax), %eax
 413 04fa 89542404 		movl	%edx, 4(%esp)
 414 04fe 890424   		movl	%eax, (%esp)
 415 0501 E8000000 		call	_vListInsert
 415      00
 416 0506 EB29     		jmp	L24
 417              	L25:
 418 0508 8B45F0   		movl	-16(%ebp), %eax
 419 050b 8B048500 		movl	_pxCurrentTCB(,%eax,4), %eax
 419      000000
 420 0512 8D5004   		leal	4(%eax), %edx
 421 0515 8B45F0   		movl	-16(%ebp), %eax
 422 0518 69C08C01 		imull	$396, %eax, %eax
 422      0000
 423 051e 05100100 		addl	$_cpuTaskCtrl+240, %eax
 423      00
 424 0523 8B00     		movl	(%eax), %eax
 425 0525 89542404 		movl	%edx, 4(%esp)
 426 0529 890424   		movl	%eax, (%esp)
 427 052c E8000000 		call	_vListInsert
 427      00
 428              	L24:
 429 0531 8B45F0   		movl	-16(%ebp), %eax
 430 0534 890424   		movl	%eax, (%esp)
 431 0537 E89A0700 		call	_xTaskResumeCpu
 431      00
 432 053c 8945E8   		movl	%eax, -24(%ebp)
 433 053f 837DE800 		cmpl	$0, -24(%ebp)
 434 0543 750B     		jne	L20
 435 0545 8B45F0   		movl	-16(%ebp), %eax
 436 0548 890424   		movl	%eax, (%esp)
 437 054b E8000000 		call	_vPortYieldCPU
 437      00
 438              	L20:
 439 0550 C9       		leave
 440              		.cfi_restore 5
 441              		.cfi_def_cfa 4, 4
 442 0551 C3       		ret
 443              		.cfi_endproc
 444              	LFE2:
 445              		.globl	_vTaskDelay
 446              		.def	_vTaskDelay;	.scl	2;	.type	32;	.endef
 447              	_vTaskDelay:
 448              	LFB3:
 449              		.cfi_startproc
 450 0552 55       		pushl	%ebp
 451              		.cfi_def_cfa_offset 8
 452              		.cfi_offset 5, -8
 453 0553 89E5     		movl	%esp, %ebp
 454              		.cfi_def_cfa_register 5
 455 0555 83EC28   		subl	$40, %esp
 456 0558 C745F400 		movl	$0, -12(%ebp)
 456      000000
 457 055f 837D0800 		cmpl	$0, 8(%ebp)
 458 0563 0F84C200 		je	L28
 458      0000
 459 0569 E8000000 		call	_sPortGetCurrentCPU
 459      00
 460 056e 8945F0   		movl	%eax, -16(%ebp)
 461 0571 8B45F0   		movl	-16(%ebp), %eax
 462 0574 890424   		movl	%eax, (%esp)
 463 0577 E8E30600 		call	_vTaskSuspendCpu
 463      00
 464 057c 8B45F0   		movl	-16(%ebp), %eax
 465 057f 8B048500 		movl	_pxCurrentTCB(,%eax,4), %eax
 465      000000
 466 0586 8945EC   		movl	%eax, -20(%ebp)
 467 0589 8B45F0   		movl	-16(%ebp), %eax
 468 058c 69C08C01 		imull	$396, %eax, %eax
 468      0000
 469 0592 05500100 		addl	$_cpuTaskCtrl+304, %eax
 469      00
 470 0597 8B500C   		movl	12(%eax), %edx
 471 059a 8B4508   		movl	8(%ebp), %eax
 472 059d 01D0     		addl	%edx, %eax
 473 059f 8945E8   		movl	%eax, -24(%ebp)
 474 05a2 8B45EC   		movl	-20(%ebp), %eax
 475 05a5 83C004   		addl	$4, %eax
 476 05a8 890424   		movl	%eax, (%esp)
 477 05ab E8000000 		call	_vListRemove
 477      00
 478 05b0 8B45F0   		movl	-16(%ebp), %eax
 479 05b3 8B048500 		movl	_pxCurrentTCB(,%eax,4), %eax
 479      000000
 480 05ba 8B55E8   		movl	-24(%ebp), %edx
 481 05bd 895004   		movl	%edx, 4(%eax)
 482 05c0 8B45F0   		movl	-16(%ebp), %eax
 483 05c3 69C08C01 		imull	$396, %eax, %eax
 483      0000
 484 05c9 05500100 		addl	$_cpuTaskCtrl+304, %eax
 484      00
 485 05ce 8B400C   		movl	12(%eax), %eax
 486 05d1 3B45E8   		cmpl	-24(%ebp), %eax
 487 05d4 7625     		jbe	L29
 488 05d6 8B45EC   		movl	-20(%ebp), %eax
 489 05d9 8D5004   		leal	4(%eax), %edx
 490 05dc 8B45F0   		movl	-16(%ebp), %eax
 491 05df 69C08C01 		imull	$396, %eax, %eax
 491      0000
 492 05e5 05100100 		addl	$_cpuTaskCtrl+240, %eax
 492      00
 493 05ea 8B4004   		movl	4(%eax), %eax
 494 05ed 89542404 		movl	%edx, 4(%esp)
 495 05f1 890424   		movl	%eax, (%esp)
 496 05f4 E8000000 		call	_vListInsert
 496      00
 497 05f9 EB22     		jmp	L30
 498              	L29:
 499 05fb 8B45EC   		movl	-20(%ebp), %eax
 500 05fe 8D5004   		leal	4(%eax), %edx
 501 0601 8B45F0   		movl	-16(%ebp), %eax
 502 0604 69C08C01 		imull	$396, %eax, %eax
 502      0000
 503 060a 05100100 		addl	$_cpuTaskCtrl+240, %eax
 503      00
 504 060f 8B00     		movl	(%eax), %eax
 505 0611 89542404 		movl	%edx, 4(%esp)
 506 0615 890424   		movl	%eax, (%esp)
 507 0618 E8000000 		call	_vListInsert
 507      00
 508              	L30:
 509 061d 8B45F0   		movl	-16(%ebp), %eax
 510 0620 890424   		movl	%eax, (%esp)
 511 0623 E8AE0600 		call	_xTaskResumeCpu
 511      00
 512 0628 8945F4   		movl	%eax, -12(%ebp)
 513              	L28:
 514 062b 837DF400 		cmpl	$0, -12(%ebp)
 515 062f 750B     		jne	L27
 516 0631 8B45F0   		movl	-16(%ebp), %eax
 517 0634 890424   		movl	%eax, (%esp)
 518 0637 E8000000 		call	_vPortYieldCPU
 518      00
 519              	L27:
 520 063c C9       		leave
 521              		.cfi_restore 5
 522              		.cfi_def_cfa 4, 4
 523 063d C3       		ret
 524              		.cfi_endproc
 525              	LFE3:
 526              		.globl	_uxTaskPriorityGet
 527              		.def	_uxTaskPriorityGet;	.scl	2;	.type	32;	.endef
 528              	_uxTaskPriorityGet:
 529              	LFB4:
 530              		.cfi_startproc
 531 063e 55       		pushl	%ebp
 532              		.cfi_def_cfa_offset 8
 533              		.cfi_offset 5, -8
 534 063f 89E5     		movl	%esp, %ebp
 535              		.cfi_def_cfa_register 5
 536 0641 83EC28   		subl	$40, %esp
 537 0644 837D0800 		cmpl	$0, 8(%ebp)
 538 0648 750A     		jne	L33
 539 064a E8000000 		call	_sPortGetCurrentCPU
 539      00
 540 064f 8945F4   		movl	%eax, -12(%ebp)
 541 0652 EB0D     		jmp	L34
 542              	L33:
 543 0654 8B4508   		movl	8(%ebp), %eax
 544 0657 0FB64044 		movzbl	68(%eax), %eax
 545 065b 0FB6C0   		movzbl	%al, %eax
 546 065e 8945F4   		movl	%eax, -12(%ebp)
 547              	L34:
 548 0661 C7442404 		movl	$0, 4(%esp)
 548      00000000 
 549 0669 8B45F4   		movl	-12(%ebp), %eax
 550 066c 890424   		movl	%eax, (%esp)
 551 066f E8C60B00 		call	_vTaskLockTake
 551      00
 552 0674 837D0800 		cmpl	$0, 8(%ebp)
 553 0678 750C     		jne	L35
 554 067a 8B45F4   		movl	-12(%ebp), %eax
 555 067d 8B048500 		movl	_pxCurrentTCB(,%eax,4), %eax
 555      000000
 556 0684 EB03     		jmp	L36
 557              	L35:
 558 0686 8B4508   		movl	8(%ebp), %eax
 559              	L36:
 560 0689 8945F0   		movl	%eax, -16(%ebp)
 561 068c 8B45F0   		movl	-16(%ebp), %eax
 562 068f 8B402C   		movl	44(%eax), %eax
 563 0692 8945EC   		movl	%eax, -20(%ebp)
 564 0695 C7442404 		movl	$0, 4(%esp)
 564      00000000 
 565 069d 8B45F4   		movl	-12(%ebp), %eax
 566 06a0 890424   		movl	%eax, (%esp)
 567 06a3 E8BF0B00 		call	_vTaskLockGive
 567      00
 568 06a8 8B45EC   		movl	-20(%ebp), %eax
 569 06ab C9       		leave
 570              		.cfi_restore 5
 571              		.cfi_def_cfa 4, 4
 572 06ac C3       		ret
 573              		.cfi_endproc
 574              	LFE4:
 575              		.globl	_vTaskPrioritySet
 576              		.def	_vTaskPrioritySet;	.scl	2;	.type	32;	.endef
 577              	_vTaskPrioritySet:
 578              	LFB5:
 579              		.cfi_startproc
 580 06ad 55       		pushl	%ebp
 581              		.cfi_def_cfa_offset 8
 582              		.cfi_offset 5, -8
 583 06ae 89E5     		movl	%esp, %ebp
 584              		.cfi_def_cfa_register 5
 585 06b0 83EC28   		subl	$40, %esp
 586 06b3 837D0800 		cmpl	$0, 8(%ebp)
 587 06b7 750A     		jne	L39
 588 06b9 E8000000 		call	_sPortGetCurrentCPU
 588      00
 589 06be 8945F0   		movl	%eax, -16(%ebp)
 590 06c1 EB0D     		jmp	L40
 591              	L39:
 592 06c3 8B4508   		movl	8(%ebp), %eax
 593 06c6 0FB64044 		movzbl	68(%eax), %eax
 594 06ca 0FB6C0   		movzbl	%al, %eax
 595 06cd 8945F0   		movl	%eax, -16(%ebp)
 596              	L40:
 597 06d0 837D0C09 		cmpl	$9, 12(%ebp)
 598 06d4 7607     		jbe	L41
 599 06d6 C7450C09 		movl	$9, 12(%ebp)
 599      000000
 600              	L41:
 601 06dd C745F400 		movl	$0, -12(%ebp)
 601      000000
 602 06e4 C7442404 		movl	$0, 4(%esp)
 602      00000000 
 603 06ec 8B45F0   		movl	-16(%ebp), %eax
 604 06ef 890424   		movl	%eax, (%esp)
 605 06f2 E8430B00 		call	_vTaskLockTake
 605      00
 606 06f7 817D0800 		cmpl	$_pxCurrentTCB, 8(%ebp)
 606      000000
 607 06fe 7507     		jne	L42
 608 0700 C7450800 		movl	$0, 8(%ebp)
 608      000000
 609              	L42:
 610 0707 837D0800 		cmpl	$0, 8(%ebp)
 611 070b 750C     		jne	L43
 612 070d 8B45F0   		movl	-16(%ebp), %eax
 613 0710 8B048500 		movl	_pxCurrentTCB(,%eax,4), %eax
 613      000000
 614 0717 EB03     		jmp	L44
 615              	L43:
 616 0719 8B4508   		movl	8(%ebp), %eax
 617              	L44:
 618 071c 8945EC   		movl	%eax, -20(%ebp)
 619 071f 8B45EC   		movl	-20(%ebp), %eax
 620 0722 8B404C   		movl	76(%eax), %eax
 621 0725 8945E8   		movl	%eax, -24(%ebp)
 622 0728 8B45E8   		movl	-24(%ebp), %eax
 623 072b 3B450C   		cmpl	12(%ebp), %eax
 624 072e 0F840601 		je	L45
 624      0000
 625 0734 8B450C   		movl	12(%ebp), %eax
 626 0737 3B45E8   		cmpl	-24(%ebp), %eax
 627 073a 760F     		jbe	L46
 628 073c 837D0800 		cmpl	$0, 8(%ebp)
 629 0740 7416     		je	L47
 630 0742 C745F401 		movl	$1, -12(%ebp)
 630      000000
 631 0749 EB0D     		jmp	L47
 632              	L46:
 633 074b 837D0800 		cmpl	$0, 8(%ebp)
 634 074f 7507     		jne	L47
 635 0751 C745F401 		movl	$1, -12(%ebp)
 635      000000
 636              	L47:
 637 0758 8B45EC   		movl	-20(%ebp), %eax
 638 075b 8B504C   		movl	76(%eax), %edx
 639 075e 8B45EC   		movl	-20(%ebp), %eax
 640 0761 8B402C   		movl	44(%eax), %eax
 641 0764 39C2     		cmpl	%eax, %edx
 642 0766 7509     		jne	L48
 643 0768 8B45EC   		movl	-20(%ebp), %eax
 644 076b 8B550C   		movl	12(%ebp), %edx
 645 076e 89502C   		movl	%edx, 44(%eax)
 646              	L48:
 647 0771 8B45EC   		movl	-20(%ebp), %eax
 648 0774 8B550C   		movl	12(%ebp), %edx
 649 0777 89504C   		movl	%edx, 76(%eax)
 650 077a B80A0000 		movl	$10, %eax
 650      00
 651 077f 89C2     		movl	%eax, %edx
 652 0781 2B550C   		subl	12(%ebp), %edx
 653 0784 8B45EC   		movl	-20(%ebp), %eax
 654 0787 895018   		movl	%edx, 24(%eax)
 655 078a 8B45EC   		movl	-20(%ebp), %eax
 656 078d 8B4814   		movl	20(%eax), %ecx
 657 0790 8B55E8   		movl	-24(%ebp), %edx
 658 0793 89D0     		movl	%edx, %eax
 659 0795 C1E002   		sall	$2, %eax
 660 0798 01D0     		addl	%edx, %eax
 661 079a C1E002   		sall	$2, %eax
 662 079d 8B55F0   		movl	-16(%ebp), %edx
 663 07a0 69D28C01 		imull	$396, %edx, %edx
 663      0000
 664 07a6 01D0     		addl	%edx, %eax
 665 07a8 05200000 		addl	$_cpuTaskCtrl, %eax
 665      00
 666 07ad 39C1     		cmpl	%eax, %ecx
 667 07af 0F858500 		jne	L45
 667      0000
 668 07b5 8B45EC   		movl	-20(%ebp), %eax
 669 07b8 83C004   		addl	$4, %eax
 670 07bb 890424   		movl	%eax, (%esp)
 671 07be E8000000 		call	_vListRemove
 671      00
 672 07c3 8B45EC   		movl	-20(%ebp), %eax
 673 07c6 8B502C   		movl	44(%eax), %edx
 674 07c9 8B45F0   		movl	-16(%ebp), %eax
 675 07cc 69C08C01 		imull	$396, %eax, %eax
 675      0000
 676 07d2 05600100 		addl	$_cpuTaskCtrl+320, %eax
 676      00
 677 07d7 8B4004   		movl	4(%eax), %eax
 678 07da 39C2     		cmpl	%eax, %edx
 679 07dc 762A     		jbe	L49
 680 07de 8B45EC   		movl	-20(%ebp), %eax
 681 07e1 8B402C   		movl	44(%eax), %eax
 682 07e4 8B55F0   		movl	-16(%ebp), %edx
 683 07e7 69D28C01 		imull	$396, %edx, %edx
 683      0000
 684 07ed 81C24001 		addl	$320, %edx
 684      0000
 685 07f3 81C22000 		addl	$_cpuTaskCtrl, %edx
 685      0000
 686 07f9 83C204   		addl	$4, %edx
 687 07fc 89442404 		movl	%eax, 4(%esp)
 688 0800 891424   		movl	%edx, (%esp)
 689 0803 E8000000 		call	_atomic32Set
 689      00
 690              	L49:
 691 0808 8B45EC   		movl	-20(%ebp), %eax
 692 080b 8D4804   		leal	4(%eax), %ecx
 693 080e 8B45EC   		movl	-20(%ebp), %eax
 694 0811 8B502C   		movl	44(%eax), %edx
 695 0814 89D0     		movl	%edx, %eax
 696 0816 C1E002   		sall	$2, %eax
 697 0819 01D0     		addl	%edx, %eax
 698 081b C1E002   		sall	$2, %eax
 699 081e 8B55F0   		movl	-16(%ebp), %edx
 700 0821 69D28C01 		imull	$396, %edx, %edx
 700      0000
 701 0827 01D0     		addl	%edx, %eax
 702 0829 05200000 		addl	$_cpuTaskCtrl, %eax
 702      00
 703 082e 894C2404 		movl	%ecx, 4(%esp)
 704 0832 890424   		movl	%eax, (%esp)
 705 0835 E8000000 		call	_vListInsertEnd
 705      00
 706              	L45:
 707 083a C7442404 		movl	$0, 4(%esp)
 707      00000000 
 708 0842 8B45F0   		movl	-16(%ebp), %eax
 709 0845 890424   		movl	%eax, (%esp)
 710 0848 E81A0A00 		call	_vTaskLockGive
 710      00
 711 084d 837DF401 		cmpl	$1, -12(%ebp)
 712 0851 750B     		jne	L38
 713 0853 8B45F0   		movl	-16(%ebp), %eax
 714 0856 890424   		movl	%eax, (%esp)
 715 0859 E8000000 		call	_vPortYieldCPU
 715      00
 716              	L38:
 717 085e C9       		leave
 718              		.cfi_restore 5
 719              		.cfi_def_cfa 4, 4
 720 085f C3       		ret
 721              		.cfi_endproc
 722              	LFE5:
 723              		.globl	_vTaskSuspend
 724              		.def	_vTaskSuspend;	.scl	2;	.type	32;	.endef
 725              	_vTaskSuspend:
 726              	LFB6:
 727              		.cfi_startproc
 728 0860 55       		pushl	%ebp
 729              		.cfi_def_cfa_offset 8
 730              		.cfi_offset 5, -8
 731 0861 89E5     		movl	%esp, %ebp
 732              		.cfi_def_cfa_register 5
 733 0863 83EC28   		subl	$40, %esp
 734 0866 837D0800 		cmpl	$0, 8(%ebp)
 735 086a 750A     		jne	L52
 736 086c E8000000 		call	_sPortGetCurrentCPU
 736      00
 737 0871 8945F4   		movl	%eax, -12(%ebp)
 738 0874 EB0D     		jmp	L53
 739              	L52:
 740 0876 8B4508   		movl	8(%ebp), %eax
 741 0879 0FB64044 		movzbl	68(%eax), %eax
 742 087d 0FB6C0   		movzbl	%al, %eax
 743 0880 8945F4   		movl	%eax, -12(%ebp)
 744              	L53:
 745 0883 C7442404 		movl	$0, 4(%esp)
 745      00000000 
 746 088b 8B45F4   		movl	-12(%ebp), %eax
 747 088e 890424   		movl	%eax, (%esp)
 748 0891 E8A40900 		call	_vTaskLockTake
 748      00
 749 0896 8B45F4   		movl	-12(%ebp), %eax
 750 0899 8B048500 		movl	_pxCurrentTCB(,%eax,4), %eax
 750      000000
 751 08a0 3B4508   		cmpl	8(%ebp), %eax
 752 08a3 7507     		jne	L54
 753 08a5 C7450800 		movl	$0, 8(%ebp)
 753      000000
 754              	L54:
 755 08ac 837D0800 		cmpl	$0, 8(%ebp)
 756 08b0 750C     		jne	L55
 757 08b2 8B45F4   		movl	-12(%ebp), %eax
 758 08b5 8B048500 		movl	_pxCurrentTCB(,%eax,4), %eax
 758      000000
 759 08bc EB03     		jmp	L56
 760              	L55:
 761 08be 8B4508   		movl	8(%ebp), %eax
 762              	L56:
 763 08c1 8945F0   		movl	%eax, -16(%ebp)
 764 08c4 8B45F0   		movl	-16(%ebp), %eax
 765 08c7 83C004   		addl	$4, %eax
 766 08ca 890424   		movl	%eax, (%esp)
 767 08cd E8000000 		call	_vListRemove
 767      00
 768 08d2 8B45F0   		movl	-16(%ebp), %eax
 769 08d5 8B4028   		movl	40(%eax), %eax
 770 08d8 85C0     		testl	%eax, %eax
 771 08da 740E     		je	L57
 772 08dc 8B45F0   		movl	-16(%ebp), %eax
 773 08df 83C018   		addl	$24, %eax
 774 08e2 890424   		movl	%eax, (%esp)
 775 08e5 E8000000 		call	_vListRemove
 775      00
 776              	L57:
 777 08ea 8B45F0   		movl	-16(%ebp), %eax
 778 08ed 8D5004   		leal	4(%eax), %edx
 779 08f0 8B45F4   		movl	-12(%ebp), %eax
 780 08f3 69C08C01 		imull	$396, %eax, %eax
 780      0000
 781 08f9 05200100 		addl	$288, %eax
 781      00
 782 08fe 05200000 		addl	$_cpuTaskCtrl, %eax
 782      00
 783 0903 83C004   		addl	$4, %eax
 784 0906 89542404 		movl	%edx, 4(%esp)
 785 090a 890424   		movl	%eax, (%esp)
 786 090d E8000000 		call	_vListInsertEnd
 786      00
 787 0912 C7442404 		movl	$0, 4(%esp)
 787      00000000 
 788 091a 8B45F4   		movl	-12(%ebp), %eax
 789 091d 890424   		movl	%eax, (%esp)
 790 0920 E8420900 		call	_vTaskLockGive
 790      00
 791 0925 837D0800 		cmpl	$0, 8(%ebp)
 792 0929 750B     		jne	L51
 793 092b 8B45F4   		movl	-12(%ebp), %eax
 794 092e 890424   		movl	%eax, (%esp)
 795 0931 E8000000 		call	_vPortYieldCPU
 795      00
 796              	L51:
 797 0936 C9       		leave
 798              		.cfi_restore 5
 799              		.cfi_def_cfa 4, 4
 800 0937 C3       		ret
 801              		.cfi_endproc
 802              	LFE6:
 803              		.globl	_xTaskIsTaskSuspended
 804              		.def	_xTaskIsTaskSuspended;	.scl	2;	.type	32;	.endef
 805              	_xTaskIsTaskSuspended:
 806              	LFB7:
 807              		.cfi_startproc
 808 0938 55       		pushl	%ebp
 809              		.cfi_def_cfa_offset 8
 810              		.cfi_offset 5, -8
 811 0939 89E5     		movl	%esp, %ebp
 812              		.cfi_def_cfa_register 5
 813 093b 83EC10   		subl	$16, %esp
 814 093e C745FC00 		movl	$0, -4(%ebp)
 814      000000
 815 0945 837D0800 		cmpl	$0, 8(%ebp)
 816 0949 7468     		je	L60
 817 094b 8B4508   		movl	8(%ebp), %eax
 818 094e 8945F8   		movl	%eax, -8(%ebp)
 819 0951 8B45F8   		movl	-8(%ebp), %eax
 820 0954 0FB64044 		movzbl	68(%eax), %eax
 821 0958 0FB6C0   		movzbl	%al, %eax
 822 095b 8945F4   		movl	%eax, -12(%ebp)
 823 095e 8B45F8   		movl	-8(%ebp), %eax
 824 0961 8B4014   		movl	20(%eax), %eax
 825 0964 8B55F4   		movl	-12(%ebp), %edx
 826 0967 69D28C01 		imull	$396, %edx, %edx
 826      0000
 827 096d 81C22001 		addl	$288, %edx
 827      0000
 828 0973 81C22000 		addl	$_cpuTaskCtrl, %edx
 828      0000
 829 0979 83C204   		addl	$4, %edx
 830 097c 39D0     		cmpl	%edx, %eax
 831 097e 7533     		jne	L60
 832 0980 8B45F8   		movl	-8(%ebp), %eax
 833 0983 8B4028   		movl	40(%eax), %eax
 834 0986 8B55F4   		movl	-12(%ebp), %edx
 835 0989 69D28C01 		imull	$396, %edx, %edx
 835      0000
 836 098f 81C2F000 		addl	$240, %edx
 836      0000
 837 0995 81C22000 		addl	$_cpuTaskCtrl, %edx
 837      0000
 838 099b 83C208   		addl	$8, %edx
 839 099e 39D0     		cmpl	%edx, %eax
 840 09a0 7411     		je	L60
 841 09a2 8B45F8   		movl	-8(%ebp), %eax
 842 09a5 8B4028   		movl	40(%eax), %eax
 843 09a8 85C0     		testl	%eax, %eax
 844 09aa 7507     		jne	L60
 845 09ac C745FC01 		movl	$1, -4(%ebp)
 845      000000
 846              	L60:
 847 09b3 8B45FC   		movl	-4(%ebp), %eax
 848 09b6 C9       		leave
 849              		.cfi_restore 5
 850              		.cfi_def_cfa 4, 4
 851 09b7 C3       		ret
 852              		.cfi_endproc
 853              	LFE7:
 854              		.globl	_vTaskResume
 855              		.def	_vTaskResume;	.scl	2;	.type	32;	.endef
 856              	_vTaskResume:
 857              	LFB8:
 858              		.cfi_startproc
 859 09b8 55       		pushl	%ebp
 860              		.cfi_def_cfa_offset 8
 861              		.cfi_offset 5, -8
 862 09b9 89E5     		movl	%esp, %ebp
 863              		.cfi_def_cfa_register 5
 864 09bb 83EC28   		subl	$40, %esp
 865 09be 837D0800 		cmpl	$0, 8(%ebp)
 866 09c2 0F841B01 		je	L62
 866      0000
 867 09c8 C745F400 		movl	$0, -12(%ebp)
 867      000000
 868 09cf 8B4508   		movl	8(%ebp), %eax
 869 09d2 8945F0   		movl	%eax, -16(%ebp)
 870 09d5 8B45F0   		movl	-16(%ebp), %eax
 871 09d8 0FB64044 		movzbl	68(%eax), %eax
 872 09dc 0FB6C0   		movzbl	%al, %eax
 873 09df 8945EC   		movl	%eax, -20(%ebp)
 874 09e2 C7442404 		movl	$0, 4(%esp)
 874      00000000 
 875 09ea 8B45EC   		movl	-20(%ebp), %eax
 876 09ed 890424   		movl	%eax, (%esp)
 877 09f0 E8450800 		call	_vTaskLockTake
 877      00
 878 09f5 8B45EC   		movl	-20(%ebp), %eax
 879 09f8 8B048500 		movl	_pxCurrentTCB(,%eax,4), %eax
 879      000000
 880 09ff 3B45F0   		cmpl	-16(%ebp), %eax
 881 0a02 0F84B700 		je	L64
 881      0000
 882 0a08 8B45F0   		movl	-16(%ebp), %eax
 883 0a0b 890424   		movl	%eax, (%esp)
 884 0a0e E825FFFF 		call	_xTaskIsTaskSuspended
 884      FF
 885 0a13 83F801   		cmpl	$1, %eax
 886 0a16 0F85A300 		jne	L64
 886      0000
 887 0a1c 8B45F0   		movl	-16(%ebp), %eax
 888 0a1f 83C004   		addl	$4, %eax
 889 0a22 890424   		movl	%eax, (%esp)
 890 0a25 E8000000 		call	_vListRemove
 890      00
 891 0a2a 8B45F0   		movl	-16(%ebp), %eax
 892 0a2d 8B502C   		movl	44(%eax), %edx
 893 0a30 8B45EC   		movl	-20(%ebp), %eax
 894 0a33 69C08C01 		imull	$396, %eax, %eax
 894      0000
 895 0a39 05600100 		addl	$_cpuTaskCtrl+320, %eax
 895      00
 896 0a3e 8B4004   		movl	4(%eax), %eax
 897 0a41 39C2     		cmpl	%eax, %edx
 898 0a43 762A     		jbe	L65
 899 0a45 8B45F0   		movl	-16(%ebp), %eax
 900 0a48 8B402C   		movl	44(%eax), %eax
 901 0a4b 8B55EC   		movl	-20(%ebp), %edx
 902 0a4e 69D28C01 		imull	$396, %edx, %edx
 902      0000
 903 0a54 81C24001 		addl	$320, %edx
 903      0000
 904 0a5a 81C22000 		addl	$_cpuTaskCtrl, %edx
 904      0000
 905 0a60 83C204   		addl	$4, %edx
 906 0a63 89442404 		movl	%eax, 4(%esp)
 907 0a67 891424   		movl	%edx, (%esp)
 908 0a6a E8000000 		call	_atomic32Set
 908      00
 909              	L65:
 910 0a6f 8B45F0   		movl	-16(%ebp), %eax
 911 0a72 8D4804   		leal	4(%eax), %ecx
 912 0a75 8B45F0   		movl	-16(%ebp), %eax
 913 0a78 8B502C   		movl	44(%eax), %edx
 914 0a7b 89D0     		movl	%edx, %eax
 915 0a7d C1E002   		sall	$2, %eax
 916 0a80 01D0     		addl	%edx, %eax
 917 0a82 C1E002   		sall	$2, %eax
 918 0a85 8B55EC   		movl	-20(%ebp), %edx
 919 0a88 69D28C01 		imull	$396, %edx, %edx
 919      0000
 920 0a8e 01D0     		addl	%edx, %eax
 921 0a90 05200000 		addl	$_cpuTaskCtrl, %eax
 921      00
 922 0a95 894C2404 		movl	%ecx, 4(%esp)
 923 0a99 890424   		movl	%eax, (%esp)
 924 0a9c E8000000 		call	_vListInsertEnd
 924      00
 925 0aa1 8B45F0   		movl	-16(%ebp), %eax
 926 0aa4 8B502C   		movl	44(%eax), %edx
 927 0aa7 8B45EC   		movl	-20(%ebp), %eax
 928 0aaa 8B048500 		movl	_pxCurrentTCB(,%eax,4), %eax
 928      000000
 929 0ab1 8B402C   		movl	44(%eax), %eax
 930 0ab4 39C2     		cmpl	%eax, %edx
 931 0ab6 7207     		jb	L64
 932 0ab8 C745F401 		movl	$1, -12(%ebp)
 932      000000
 933              	L64:
 934 0abf C7442404 		movl	$0, 4(%esp)
 934      00000000 
 935 0ac7 8B45EC   		movl	-20(%ebp), %eax
 936 0aca 890424   		movl	%eax, (%esp)
 937 0acd E8950700 		call	_vTaskLockGive
 937      00
 938 0ad2 837DF401 		cmpl	$1, -12(%ebp)
 939 0ad6 750B     		jne	L62
 940 0ad8 8B45EC   		movl	-20(%ebp), %eax
 941 0adb 890424   		movl	%eax, (%esp)
 942 0ade E8000000 		call	_vPortYieldCPU
 942      00
 943              	L62:
 944 0ae3 C9       		leave
 945              		.cfi_restore 5
 946              		.cfi_def_cfa 4, 4
 947 0ae4 C3       		ret
 948              		.cfi_endproc
 949              	LFE8:
 950              		.section .rdata,"dr"
 951              	LC0:
 952 0000 49444C45 		.ascii "IDLE%u\0"
 952      257500
 953              		.text
 954              		.globl	_vTaskStartScheduler
 955              		.def	_vTaskStartScheduler;	.scl	2;	.type	32;	.endef
 956              	_vTaskStartScheduler:
 957              	LFB9:
 958              		.cfi_startproc
 959 0ae5 55       		pushl	%ebp
 960              		.cfi_def_cfa_offset 8
 961              		.cfi_offset 5, -8
 962 0ae6 89E5     		movl	%esp, %ebp
 963              		.cfi_def_cfa_register 5
 964 0ae8 53       		pushl	%ebx
 965 0ae9 83EC54   		subl	$84, %esp
 966              		.cfi_offset 3, -12
 967 0aec C645F700 		movb	$0, -9(%ebp)
 968 0af0 EB73     		jmp	L67
 969              	L70:
 970 0af2 0FB645F7 		movzbl	-9(%ebp), %eax
 971 0af6 89442408 		movl	%eax, 8(%esp)
 972 0afa C7442404 		movl	$LC0, 4(%esp)
 972      00000000 
 973 0b02 8D45E4   		leal	-28(%ebp), %eax
 974 0b05 890424   		movl	%eax, (%esp)
 975 0b08 E8000000 		call	_sprintf
 975      00
 976 0b0d 0FB645F7 		movzbl	-9(%ebp), %eax
 977 0b11 C7442420 		movl	$0, 32(%esp)
 977      00000000 
 978 0b19 C744241C 		movl	$0, 28(%esp)
 978      00000000 
 979 0b21 C7442418 		movl	$0, 24(%esp)
 979      00000000 
 980 0b29 C7442414 		movl	$0, 20(%esp)
 980      00000000 
 981 0b31 C7442410 		movl	$0, 16(%esp)
 981      00000000 
 982 0b39 C744240C 		movl	$512, 12(%esp)
 982      00020000 
 983 0b41 8D55E4   		leal	-28(%ebp), %edx
 984 0b44 89542408 		movl	%edx, 8(%esp)
 985 0b48 C7442404 		movl	$_prvIdleTask, 4(%esp)
 985      391B0000 
 986 0b50 890424   		movl	%eax, (%esp)
 987 0b53 E8A8F4FF 		call	_xTaskGenericCreate
 987      FF
 988 0b58 8945F0   		movl	%eax, -16(%ebp)
 989 0b5b 837DF001 		cmpl	$1, -16(%ebp)
 990 0b5f 7512     		jne	L73
 991              	L68:
 992 0b61 8045F701 		addb	$1, -9(%ebp)
 993              	L67:
 994 0b65 0FB60500 		movzbl	_bCpuConfigured, %eax
 994      000000
 995 0b6c 3845F7   		cmpb	%al, -9(%ebp)
 996 0b6f 7281     		jb	L70
 997 0b71 EB01     		jmp	L69
 998              	L73:
 999 0b73 90       		nop
 1000              	L69:
 1001 0b74 837DF001 		cmpl	$1, -16(%ebp)
 1002 0b78 7522     		jne	L66
 1003              	/APP
 1004              	 # 1285 "../../Source/tasks.c" 1
 1005 0b7a 9CFA5B   		pushf; cli; popl %ebx; 
 1006              	 # 0 "" 2
 1007              	/NO_APP
 1008 0b7d 895DEC   		movl	%ebx, -20(%ebp)
 1009 0b80 66C70504 		movw	$1, _taskInitComplete
 1009      00000001 
 1009      00
 1010 0b89 E8000000 		call	_xPortStartScheduler
 1010      00
 1011              	L72:
 1012 0b8e C70424E8 		movl	$1000, (%esp)
 1012      030000
 1013 0b95 E8000000 		call	_vDelay
 1013      00
 1014 0b9a EBF2     		jmp	L72
 1015              	L66:
 1016 0b9c 83C454   		addl	$84, %esp
 1017 0b9f 5B       		popl	%ebx
 1018              		.cfi_restore 3
 1019 0ba0 5D       		popl	%ebp
 1020              		.cfi_restore 5
 1021              		.cfi_def_cfa 4, 4
 1022 0ba1 C3       		ret
 1023              		.cfi_endproc
 1024              	LFE9:
 1025              		.globl	_vTaskEndScheduler
 1026              		.def	_vTaskEndScheduler;	.scl	2;	.type	32;	.endef
 1027              	_vTaskEndScheduler:
 1028              	LFB10:
 1029              		.cfi_startproc
 1030 0ba2 55       		pushl	%ebp
 1031              		.cfi_def_cfa_offset 8
 1032              		.cfi_offset 5, -8
 1033 0ba3 89E5     		movl	%esp, %ebp
 1034              		.cfi_def_cfa_register 5
 1035 0ba5 53       		pushl	%ebx
 1036 0ba6 83EC24   		subl	$36, %esp
 1037              		.cfi_offset 3, -12
 1038 0ba9 C745F400 		movl	$0, -12(%ebp)
 1038      000000
 1039 0bb0 E9860000 		jmp	L75
 1039      00
 1040              	L76:
 1041 0bb5 C7442404 		movl	$0, 4(%esp)
 1041      00000000 
 1042 0bbd 8B45F4   		movl	-12(%ebp), %eax
 1043 0bc0 890424   		movl	%eax, (%esp)
 1044 0bc3 E8720600 		call	_vTaskLockTake
 1044      00
 1045 0bc8 8B45F4   		movl	-12(%ebp), %eax
 1046 0bcb 69C08C01 		imull	$396, %eax, %eax
 1046      0000
 1047 0bd1 05500100 		addl	$336, %eax
 1047      00
 1048 0bd6 05200000 		addl	$_cpuTaskCtrl, %eax
 1048      00
 1049 0bdb C7442404 		movl	$1, 4(%esp)
 1049      01000000 
 1050 0be3 890424   		movl	%eax, (%esp)
 1051 0be6 E8000000 		call	_atomic32Set
 1051      00
 1052 0beb 8B45F4   		movl	-12(%ebp), %eax
 1053 0bee 69C08C01 		imull	$396, %eax, %eax
 1053      0000
 1054 0bf4 05400100 		addl	$320, %eax
 1054      00
 1055 0bf9 05200000 		addl	$_cpuTaskCtrl, %eax
 1055      00
 1056 0bfe 83C00C   		addl	$12, %eax
 1057 0c01 C7442404 		movl	$1, 4(%esp)
 1057      01000000 
 1058 0c09 890424   		movl	%eax, (%esp)
 1059 0c0c E8000000 		call	_atomic32Set
 1059      00
 1060 0c11 8B45F4   		movl	-12(%ebp), %eax
 1061 0c14 69C08C01 		imull	$396, %eax, %eax
 1061      0000
 1062 0c1a 05400100 		addl	$320, %eax
 1062      00
 1063 0c1f 05200000 		addl	$_cpuTaskCtrl, %eax
 1063      00
 1064 0c24 83C008   		addl	$8, %eax
 1065 0c27 C7442404 		movl	$0, 4(%esp)
 1065      00000000 
 1066 0c2f 890424   		movl	%eax, (%esp)
 1067 0c32 E8000000 		call	_atomic32Set
 1067      00
 1068 0c37 8345F401 		addl	$1, -12(%ebp)
 1069              	L75:
 1070 0c3b 0FB60500 		movzbl	_bCpuConfigured, %eax
 1070      000000
 1071 0c42 0FB6C0   		movzbl	%al, %eax
 1072 0c45 3B45F4   		cmpl	-12(%ebp), %eax
 1073 0c48 0F8F67FF 		jg	L76
 1073      FFFF
 1074              	/APP
 1075              	 # 1336 "../../Source/tasks.c" 1
 1076 0c4e 9CFA5B   		pushf; cli; popl %ebx; 
 1077              	 # 0 "" 2
 1078              	/NO_APP
 1079 0c51 895DF0   		movl	%ebx, -16(%ebp)
 1080 0c54 E8000000 		call	_vPortEndScheduler
 1080      00
 1081 0c59 83C424   		addl	$36, %esp
 1082 0c5c 5B       		popl	%ebx
 1083              		.cfi_restore 3
 1084 0c5d 5D       		popl	%ebp
 1085              		.cfi_restore 5
 1086              		.cfi_def_cfa 4, 4
 1087 0c5e C3       		ret
 1088              		.cfi_endproc
 1089              	LFE10:
 1090              		.globl	_vTaskSuspendCpu
 1091              		.def	_vTaskSuspendCpu;	.scl	2;	.type	32;	.endef
 1092              	_vTaskSuspendCpu:
 1093              	LFB11:
 1094              		.cfi_startproc
 1095 0c5f 55       		pushl	%ebp
 1096              		.cfi_def_cfa_offset 8
 1097              		.cfi_offset 5, -8
 1098 0c60 89E5     		movl	%esp, %ebp
 1099              		.cfi_def_cfa_register 5
 1100 0c62 83EC18   		subl	$24, %esp
 1101 0c65 0FB60500 		movzbl	_bCpuConfigured, %eax
 1101      000000
 1102 0c6c 0FB6C0   		movzbl	%al, %eax
 1103 0c6f 3B4508   		cmpl	8(%ebp), %eax
 1104 0c72 7E31     		jle	L77
 1105 0c74 8B4508   		movl	8(%ebp), %eax
 1106 0c77 69C08C01 		imull	$396, %eax, %eax
 1106      0000
 1107 0c7d 05400100 		addl	$320, %eax
 1107      00
 1108 0c82 05200000 		addl	$_cpuTaskCtrl, %eax
 1108      00
 1109 0c87 83C00C   		addl	$12, %eax
 1110 0c8a 890424   		movl	%eax, (%esp)
 1111 0c8d E8000000 		call	_atomic32Inc
 1111      00
 1112 0c92 C7442404 		movl	$0, 4(%esp)
 1112      00000000 
 1113 0c9a 8B4508   		movl	8(%ebp), %eax
 1114 0c9d 890424   		movl	%eax, (%esp)
 1115 0ca0 E8950500 		call	_vTaskLockTake
 1115      00
 1116              	L77:
 1117 0ca5 C9       		leave
 1118              		.cfi_restore 5
 1119              		.cfi_def_cfa 4, 4
 1120 0ca6 C3       		ret
 1121              		.cfi_endproc
 1122              	LFE11:
 1123              		.globl	_vTaskSuspendAll
 1124              		.def	_vTaskSuspendAll;	.scl	2;	.type	32;	.endef
 1125              	_vTaskSuspendAll:
 1126              	LFB12:
 1127              		.cfi_startproc
 1128 0ca7 55       		pushl	%ebp
 1129              		.cfi_def_cfa_offset 8
 1130              		.cfi_offset 5, -8
 1131 0ca8 89E5     		movl	%esp, %ebp
 1132              		.cfi_def_cfa_register 5
 1133 0caa 83EC28   		subl	$40, %esp
 1134 0cad C745F400 		movl	$0, -12(%ebp)
 1134      000000
 1135 0cb4 EB0F     		jmp	L80
 1136              	L81:
 1137 0cb6 8B45F4   		movl	-12(%ebp), %eax
 1138 0cb9 890424   		movl	%eax, (%esp)
 1139 0cbc E89EFFFF 		call	_vTaskSuspendCpu
 1139      FF
 1140 0cc1 8345F401 		addl	$1, -12(%ebp)
 1141              	L80:
 1142 0cc5 0FB60500 		movzbl	_bCpuConfigured, %eax
 1142      000000
 1143 0ccc 0FB6C0   		movzbl	%al, %eax
 1144 0ccf 3B45F4   		cmpl	-12(%ebp), %eax
 1145 0cd2 7FE2     		jg	L81
 1146 0cd4 C9       		leave
 1147              		.cfi_restore 5
 1148              		.cfi_def_cfa 4, 4
 1149 0cd5 C3       		ret
 1150              		.cfi_endproc
 1151              	LFE12:
 1152              		.globl	_xTaskResumeCpu
 1153              		.def	_xTaskResumeCpu;	.scl	2;	.type	32;	.endef
 1154              	_xTaskResumeCpu:
 1155              	LFB13:
 1156              		.cfi_startproc
 1157 0cd6 55       		pushl	%ebp
 1158              		.cfi_def_cfa_offset 8
 1159              		.cfi_offset 5, -8
 1160 0cd7 89E5     		movl	%esp, %ebp
 1161              		.cfi_def_cfa_register 5
 1162 0cd9 53       		pushl	%ebx
 1163 0cda 83EC24   		subl	$36, %esp
 1164              		.cfi_offset 3, -12
 1165 0cdd C745F400 		movl	$0, -12(%ebp)
 1165      000000
 1166 0ce4 0FB60500 		movzbl	_bCpuConfigured, %eax
 1166      000000
 1167 0ceb 0FB6C0   		movzbl	%al, %eax
 1168 0cee 3B4508   		cmpl	8(%ebp), %eax
 1169 0cf1 0F8EFB01 		jle	L83
 1169      0000
 1170 0cf7 8B4508   		movl	8(%ebp), %eax
 1171 0cfa 69C08C01 		imull	$396, %eax, %eax
 1171      0000
 1172 0d00 05400100 		addl	$320, %eax
 1172      00
 1173 0d05 05200000 		addl	$_cpuTaskCtrl, %eax
 1173      00
 1174 0d0a 83C00C   		addl	$12, %eax
 1175 0d0d 890424   		movl	%eax, (%esp)
 1176 0d10 E8000000 		call	_atomic32Dec
 1176      00
 1177 0d15 8B4508   		movl	8(%ebp), %eax
 1178 0d18 69C08C01 		imull	$396, %eax, %eax
 1178      0000
 1179 0d1e 05400100 		addl	$320, %eax
 1179      00
 1180 0d23 05200000 		addl	$_cpuTaskCtrl, %eax
 1180      00
 1181 0d28 83C00C   		addl	$12, %eax
 1182 0d2b 890424   		movl	%eax, (%esp)
 1183 0d2e E8000000 		call	_atomic32Get
 1183      00
 1184 0d33 85C0     		testl	%eax, %eax
 1185 0d35 0F859301 		jne	L84
 1185      0000
 1186 0d3b 8B4508   		movl	8(%ebp), %eax
 1187 0d3e 69C08C01 		imull	$396, %eax, %eax
 1187      0000
 1188 0d44 05500100 		addl	$_cpuTaskCtrl+304, %eax
 1188      00
 1189 0d49 8B4008   		movl	8(%eax), %eax
 1190 0d4c 85C0     		testl	%eax, %eax
 1191 0d4e 0F847A01 		je	L84
 1191      0000
 1192 0d54 E99C0000 		jmp	L85
 1192      00
 1193              	L89:
 1194 0d59 8D4318   		leal	24(%ebx), %eax
 1195 0d5c 890424   		movl	%eax, (%esp)
 1196 0d5f E8000000 		call	_vListRemove
 1196      00
 1197 0d64 8D4304   		leal	4(%ebx), %eax
 1198 0d67 890424   		movl	%eax, (%esp)
 1199 0d6a E8000000 		call	_vListRemove
 1199      00
 1200 0d6f 8B532C   		movl	44(%ebx), %edx
 1201 0d72 8B4508   		movl	8(%ebp), %eax
 1202 0d75 69C08C01 		imull	$396, %eax, %eax
 1202      0000
 1203 0d7b 05600100 		addl	$_cpuTaskCtrl+320, %eax
 1203      00
 1204 0d80 8B4004   		movl	4(%eax), %eax
 1205 0d83 39C2     		cmpl	%eax, %edx
 1206 0d85 7627     		jbe	L86
 1207 0d87 8B432C   		movl	44(%ebx), %eax
 1208 0d8a 8B5508   		movl	8(%ebp), %edx
 1209 0d8d 69D28C01 		imull	$396, %edx, %edx
 1209      0000
 1210 0d93 81C24001 		addl	$320, %edx
 1210      0000
 1211 0d99 81C22000 		addl	$_cpuTaskCtrl, %edx
 1211      0000
 1212 0d9f 83C204   		addl	$4, %edx
 1213 0da2 89442404 		movl	%eax, 4(%esp)
 1214 0da6 891424   		movl	%edx, (%esp)
 1215 0da9 E8000000 		call	_atomic32Set
 1215      00
 1216              	L86:
 1217 0dae 8D4B04   		leal	4(%ebx), %ecx
 1218 0db1 8B532C   		movl	44(%ebx), %edx
 1219 0db4 89D0     		movl	%edx, %eax
 1220 0db6 C1E002   		sall	$2, %eax
 1221 0db9 01D0     		addl	%edx, %eax
 1222 0dbb C1E002   		sall	$2, %eax
 1223 0dbe 8B5508   		movl	8(%ebp), %edx
 1224 0dc1 69D28C01 		imull	$396, %edx, %edx
 1224      0000
 1225 0dc7 01D0     		addl	%edx, %eax
 1226 0dc9 05200000 		addl	$_cpuTaskCtrl, %eax
 1226      00
 1227 0dce 894C2404 		movl	%ecx, 4(%esp)
 1228 0dd2 890424   		movl	%eax, (%esp)
 1229 0dd5 E8000000 		call	_vListInsertEnd
 1229      00
 1230 0dda 8B532C   		movl	44(%ebx), %edx
 1231 0ddd 8B4508   		movl	8(%ebp), %eax
 1232 0de0 8B048500 		movl	_pxCurrentTCB(,%eax,4), %eax
 1232      000000
 1233 0de7 8B402C   		movl	44(%eax), %eax
 1234 0dea 39C2     		cmpl	%eax, %edx
 1235 0dec 7207     		jb	L85
 1236 0dee C745F401 		movl	$1, -12(%ebp)
 1236      000000
 1237              	L85:
 1238 0df5 8B4508   		movl	8(%ebp), %eax
 1239 0df8 69C08C01 		imull	$396, %eax, %eax
 1239      0000
 1240 0dfe 05100100 		addl	$_cpuTaskCtrl+240, %eax
 1240      00
 1241 0e03 8B4008   		movl	8(%eax), %eax
 1242 0e06 85C0     		testl	%eax, %eax
 1243 0e08 7416     		je	L87
 1244 0e0a 8B4508   		movl	8(%ebp), %eax
 1245 0e0d 69C08C01 		imull	$396, %eax, %eax
 1245      0000
 1246 0e13 05100100 		addl	$_cpuTaskCtrl+240, %eax
 1246      00
 1247 0e18 8B4014   		movl	20(%eax), %eax
 1248 0e1b 8B400C   		movl	12(%eax), %eax
 1249 0e1e EB05     		jmp	L88
 1250              	L87:
 1251 0e20 B8000000 		movl	$0, %eax
 1251      00
 1252              	L88:
 1253 0e25 89C3     		movl	%eax, %ebx
 1254 0e27 85DB     		testl	%ebx, %ebx
 1255 0e29 0F852AFF 		jne	L89
 1255      FFFF
 1256 0e2f 8B4508   		movl	8(%ebp), %eax
 1257 0e32 69C08C01 		imull	$396, %eax, %eax
 1257      0000
 1258 0e38 05700100 		addl	$_cpuTaskCtrl+336, %eax
 1258      00
 1259 0e3d 8B4004   		movl	4(%eax), %eax
 1260 0e40 85C0     		testl	%eax, %eax
 1261 0e42 7447     		je	L90
 1262 0e44 EB29     		jmp	L91
 1263              	L92:
 1264 0e46 8B4508   		movl	8(%ebp), %eax
 1265 0e49 890424   		movl	%eax, (%esp)
 1266 0e4c E8B70500 		call	_vTaskIncrementTick
 1266      00
 1267 0e51 8B4508   		movl	8(%ebp), %eax
 1268 0e54 69C08C01 		imull	$396, %eax, %eax
 1268      0000
 1269 0e5a 05500100 		addl	$336, %eax
 1269      00
 1270 0e5f 05200000 		addl	$_cpuTaskCtrl, %eax
 1270      00
 1271 0e64 83C004   		addl	$4, %eax
 1272 0e67 890424   		movl	%eax, (%esp)
 1273 0e6a E8000000 		call	_atomic32Dec
 1273      00
 1274              	L91:
 1275 0e6f 8B4508   		movl	8(%ebp), %eax
 1276 0e72 69C08C01 		imull	$396, %eax, %eax
 1276      0000
 1277 0e78 05700100 		addl	$_cpuTaskCtrl+336, %eax
 1277      00
 1278 0e7d 8B4004   		movl	4(%eax), %eax
 1279 0e80 85C0     		testl	%eax, %eax
 1280 0e82 75C2     		jne	L92
 1281 0e84 C745F401 		movl	$1, -12(%ebp)
 1281      000000
 1282              	L90:
 1283 0e8b 8B4508   		movl	8(%ebp), %eax
 1284 0e8e 69C08C01 		imull	$396, %eax, %eax
 1284      0000
 1285 0e94 05700100 		addl	$_cpuTaskCtrl+336, %eax
 1285      00
 1286 0e99 8B4008   		movl	8(%eax), %eax
 1287 0e9c 83F801   		cmpl	$1, %eax
 1288 0e9f 752D     		jne	L84
 1289 0ea1 C745F401 		movl	$1, -12(%ebp)
 1289      000000
 1290 0ea8 8B4508   		movl	8(%ebp), %eax
 1291 0eab 69C08C01 		imull	$396, %eax, %eax
 1291      0000
 1292 0eb1 05500100 		addl	$336, %eax
 1292      00
 1293 0eb6 05200000 		addl	$_cpuTaskCtrl, %eax
 1293      00
 1294 0ebb 83C008   		addl	$8, %eax
 1295 0ebe C7442404 		movl	$0, 4(%esp)
 1295      00000000 
 1296 0ec6 890424   		movl	%eax, (%esp)
 1297 0ec9 E8000000 		call	_atomic32Set
 1297      00
 1298              	L84:
 1299 0ece C7442404 		movl	$0, 4(%esp)
 1299      00000000 
 1300 0ed6 8B4508   		movl	8(%ebp), %eax
 1301 0ed9 890424   		movl	%eax, (%esp)
 1302 0edc E8860300 		call	_vTaskLockGive
 1302      00
 1303 0ee1 837DF401 		cmpl	$1, -12(%ebp)
 1304 0ee5 750B     		jne	L83
 1305 0ee7 8B4508   		movl	8(%ebp), %eax
 1306 0eea 890424   		movl	%eax, (%esp)
 1307 0eed E8000000 		call	_vPortYieldCPU
 1307      00
 1308              	L83:
 1309 0ef2 8B45F4   		movl	-12(%ebp), %eax
 1310 0ef5 83C424   		addl	$36, %esp
 1311 0ef8 5B       		popl	%ebx
 1312              		.cfi_restore 3
 1313 0ef9 5D       		popl	%ebp
 1314              		.cfi_restore 5
 1315              		.cfi_def_cfa 4, 4
 1316 0efa C3       		ret
 1317              		.cfi_endproc
 1318              	LFE13:
 1319              		.globl	_xTaskResumeAll
 1320              		.def	_xTaskResumeAll;	.scl	2;	.type	32;	.endef
 1321              	_xTaskResumeAll:
 1322              	LFB14:
 1323              		.cfi_startproc
 1324 0efb 55       		pushl	%ebp
 1325              		.cfi_def_cfa_offset 8
 1326              		.cfi_offset 5, -8
 1327 0efc 89E5     		movl	%esp, %ebp
 1328              		.cfi_def_cfa_register 5
 1329 0efe 83EC28   		subl	$40, %esp
 1330 0f01 C745EC00 		movl	$0, -20(%ebp)
 1330      000000
 1331 0f08 0FB60500 		movzbl	_bCpuConfigured, %eax
 1331      000000
 1332 0f0f 0FB6C0   		movzbl	%al, %eax
 1333 0f12 83E801   		subl	$1, %eax
 1334 0f15 8945F0   		movl	%eax, -16(%ebp)
 1335 0f18 C745F400 		movl	$0, -12(%ebp)
 1335      000000
 1336 0f1f EB1B     		jmp	L95
 1337              	L97:
 1338 0f21 8B45F0   		movl	-16(%ebp), %eax
 1339 0f24 890424   		movl	%eax, (%esp)
 1340 0f27 E8AAFDFF 		call	_xTaskResumeCpu
 1340      FF
 1341 0f2c 85C0     		testl	%eax, %eax
 1342 0f2e 7404     		je	L96
 1343 0f30 8345EC01 		addl	$1, -20(%ebp)
 1344              	L96:
 1345 0f34 836DF001 		subl	$1, -16(%ebp)
 1346 0f38 8345F401 		addl	$1, -12(%ebp)
 1347              	L95:
 1348 0f3c 0FB60500 		movzbl	_bCpuConfigured, %eax
 1348      000000
 1349 0f43 0FB6C0   		movzbl	%al, %eax
 1350 0f46 3B45F4   		cmpl	-12(%ebp), %eax
 1351 0f49 7FD6     		jg	L97
 1352 0f4b 8B45EC   		movl	-20(%ebp), %eax
 1353 0f4e C9       		leave
 1354              		.cfi_restore 5
 1355              		.cfi_def_cfa 4, 4
 1356 0f4f C3       		ret
 1357              		.cfi_endproc
 1358              	LFE14:
 1359              		.globl	_xTaskGetTickCount
 1360              		.def	_xTaskGetTickCount;	.scl	2;	.type	32;	.endef
 1361              	_xTaskGetTickCount:
 1362              	LFB15:
 1363              		.cfi_startproc
 1364 0f50 55       		pushl	%ebp
 1365              		.cfi_def_cfa_offset 8
 1366              		.cfi_offset 5, -8
 1367 0f51 89E5     		movl	%esp, %ebp
 1368              		.cfi_def_cfa_register 5
 1369 0f53 53       		pushl	%ebx
 1370 0f54 83EC24   		subl	$36, %esp
 1371              		.cfi_offset 3, -12
 1372 0f57 E8000000 		call	_sPortGetCurrentCPU
 1372      00
 1373 0f5c 8945F4   		movl	%eax, -12(%ebp)
 1374              	/APP
 1375              	 # 1481 "../../Source/tasks.c" 1
 1376 0f5f 9CFA5B   		pushf; cli; popl %ebx; 
 1377              	 # 0 "" 2
 1378              	/NO_APP
 1379 0f62 895DF0   		movl	%ebx, -16(%ebp)
 1380 0f65 8B45F4   		movl	-12(%ebp), %eax
 1381 0f68 69C08C01 		imull	$396, %eax, %eax
 1381      0000
 1382 0f6e 05300100 		addl	$304, %eax
 1382      00
 1383 0f73 05200000 		addl	$_cpuTaskCtrl, %eax
 1383      00
 1384 0f78 83C00C   		addl	$12, %eax
 1385 0f7b 890424   		movl	%eax, (%esp)
 1386 0f7e E8000000 		call	_atomic32Get
 1386      00
 1387 0f83 8945EC   		movl	%eax, -20(%ebp)
 1388              	/APP
 1389              	 # 1485 "../../Source/tasks.c" 1
 1390 0f86 F745F000 		testl $0x200,-16(%ebp); jz 0f; sti; 0: 
 1390      02000074 
 1390      01FB
 1391              	 # 0 "" 2
 1392              	/NO_APP
 1393 0f90 8B45EC   		movl	-20(%ebp), %eax
 1394 0f93 83C424   		addl	$36, %esp
 1395 0f96 5B       		popl	%ebx
 1396              		.cfi_restore 3
 1397 0f97 5D       		popl	%ebp
 1398              		.cfi_restore 5
 1399              		.cfi_def_cfa 4, 4
 1400 0f98 C3       		ret
 1401              		.cfi_endproc
 1402              	LFE15:
 1403              		.globl	_uxTaskGetNumberOfTasks
 1404              		.def	_uxTaskGetNumberOfTasks;	.scl	2;	.type	32;	.endef
 1405              	_uxTaskGetNumberOfTasks:
 1406              	LFB16:
 1407              		.cfi_startproc
 1408 0f99 55       		pushl	%ebp
 1409              		.cfi_def_cfa_offset 8
 1410              		.cfi_offset 5, -8
 1411 0f9a 89E5     		movl	%esp, %ebp
 1412              		.cfi_def_cfa_register 5
 1413 0f9c 83EC28   		subl	$40, %esp
 1414 0f9f E8000000 		call	_sPortGetCurrentCPU
 1414      00
 1415 0fa4 8945F4   		movl	%eax, -12(%ebp)
 1416 0fa7 8B45F4   		movl	-12(%ebp), %eax
 1417 0faa 69C08C01 		imull	$396, %eax, %eax
 1417      0000
 1418 0fb0 05300100 		addl	$304, %eax
 1418      00
 1419 0fb5 05200000 		addl	$_cpuTaskCtrl, %eax
 1419      00
 1420 0fba 83C008   		addl	$8, %eax
 1421 0fbd 890424   		movl	%eax, (%esp)
 1422 0fc0 E8000000 		call	_atomic32Get
 1422      00
 1423 0fc5 C9       		leave
 1424              		.cfi_restore 5
 1425              		.cfi_def_cfa 4, 4
 1426 0fc6 C3       		ret
 1427              		.cfi_endproc
 1428              	LFE16:
 1429              		.section .rdata,"dr"
 1430              	LC1:
 1431 0007 00       		.ascii "\0"
 1432              		.align 4
 1433              	LC2:
 1434 0008 0D0A5461 		.ascii "\15\12Task Name%*sCPU%*sStatus%*sPriority%*sStack%*sTCB\15\12\0"
 1434      736B204E 
 1434      616D6525 
 1434      2A734350 
 1434      55252A73 
 1435              		.text
 1436              		.globl	_vTaskList
 1437              		.def	_vTaskList;	.scl	2;	.type	32;	.endef
 1438              	_vTaskList:
 1439              	LFB17:
 1440              		.cfi_startproc
 1441 0fc7 55       		pushl	%ebp
 1442              		.cfi_def_cfa_offset 8
 1443              		.cfi_offset 5, -8
 1444 0fc8 89E5     		movl	%esp, %ebp
 1445              		.cfi_def_cfa_register 5
 1446 0fca 83EC48   		subl	$72, %esp
 1447 0fcd E8000000 		call	_sysGetTimestamp
 1447      00
 1448 0fd2 8945E8   		movl	%eax, -24(%ebp)
 1449 0fd5 8955EC   		movl	%edx, -20(%ebp)
 1450 0fd8 8B4508   		movl	8(%ebp), %eax
 1451 0fdb C60000   		movb	$0, (%eax)
 1452 0fde C744242C 		movl	$LC1, 44(%esp)
 1452      07000000 
 1453 0fe6 C7442428 		movl	$2, 40(%esp)
 1453      02000000 
 1454 0fee C7442424 		movl	$LC1, 36(%esp)
 1454      07000000 
 1455 0ff6 C7442420 		movl	$3, 32(%esp)
 1455      03000000 
 1456 0ffe C744241C 		movl	$LC1, 28(%esp)
 1456      07000000 
 1457 1006 C7442418 		movl	$2, 24(%esp)
 1457      02000000 
 1458 100e C7442414 		movl	$LC1, 20(%esp)
 1458      07000000 
 1459 1016 C7442410 		movl	$2, 16(%esp)
 1459      02000000 
 1460 101e C744240C 		movl	$LC1, 12(%esp)
 1460      07000000 
 1461 1026 C7442408 		movl	$7, 8(%esp)
 1461      07000000 
 1462 102e C7442404 		movl	$LC2, 4(%esp)
 1462      08000000 
 1463 1036 8B4508   		movl	8(%ebp), %eax
 1464 1039 890424   		movl	%eax, (%esp)
 1465 103c E8000000 		call	_sprintf
 1465      00
 1466 1041 C745F000 		movl	$0, -16(%ebp)
 1466      000000
 1467 1048 E9D80100 		jmp	L104
 1467      00
 1468              	L111:
 1469 104d 8B45F0   		movl	-16(%ebp), %eax
 1470 1050 890424   		movl	%eax, (%esp)
 1471 1053 E807FCFF 		call	_vTaskSuspendCpu
 1471      FF
 1472 1058 8B45F0   		movl	-16(%ebp), %eax
 1473 105b 69C08C01 		imull	$396, %eax, %eax
 1473      0000
 1474 1061 05600100 		addl	$_cpuTaskCtrl+320, %eax
 1474      00
 1475 1066 8B00     		movl	(%eax), %eax
 1476 1068 83C001   		addl	$1, %eax
 1477 106b 8945F4   		movl	%eax, -12(%ebp)
 1478              	L106:
 1479 106e 836DF401 		subl	$1, -12(%ebp)
 1480 1072 8B55F4   		movl	-12(%ebp), %edx
 1481 1075 8B4DF0   		movl	-16(%ebp), %ecx
 1482 1078 89D0     		movl	%edx, %eax
 1483 107a C1E002   		sall	$2, %eax
 1484 107d 01D0     		addl	%edx, %eax
 1485 107f C1E002   		sall	$2, %eax
 1486 1082 69D18C01 		imull	$396, %ecx, %edx
 1486      0000
 1487 1088 01D0     		addl	%edx, %eax
 1488 108a 05200000 		addl	$_cpuTaskCtrl, %eax
 1488      00
 1489 108f 8B00     		movl	(%eax), %eax
 1490 1091 85C0     		testl	%eax, %eax
 1491 1093 7443     		je	L105
 1492 1095 8B55F4   		movl	-12(%ebp), %edx
 1493 1098 89D0     		movl	%edx, %eax
 1494 109a C1E002   		sall	$2, %eax
 1495 109d 01D0     		addl	%edx, %eax
 1496 109f C1E002   		sall	$2, %eax
 1497 10a2 8B55F0   		movl	-16(%ebp), %edx
 1498 10a5 69D28C01 		imull	$396, %edx, %edx
 1498      0000
 1499 10ab 01D0     		addl	%edx, %eax
 1500 10ad 8D882000 		leal	_cpuTaskCtrl(%eax), %ecx
 1500      0000
 1501 10b3 8B45E8   		movl	-24(%ebp), %eax
 1502 10b6 8B55EC   		movl	-20(%ebp), %edx
 1503 10b9 8944240C 		movl	%eax, 12(%esp)
 1504 10bd 89542410 		movl	%edx, 16(%esp)
 1505 10c1 C7442408 		movl	$82, 8(%esp)
 1505      52000000 
 1506 10c9 894C2404 		movl	%ecx, 4(%esp)
 1507 10cd 8B4508   		movl	8(%ebp), %eax
 1508 10d0 890424   		movl	%eax, (%esp)
 1509 10d3 E8130E00 		call	_prvListTaskWithinSingleList
 1509      00
 1510              	L105:
 1511 10d8 837DF400 		cmpl	$0, -12(%ebp)
 1512 10dc 7590     		jne	L106
 1513 10de 8B45F0   		movl	-16(%ebp), %eax
 1514 10e1 69C08C01 		imull	$396, %eax, %eax
 1514      0000
 1515 10e7 05100100 		addl	$_cpuTaskCtrl+240, %eax
 1515      00
 1516 10ec 8B00     		movl	(%eax), %eax
 1517 10ee 8B00     		movl	(%eax), %eax
 1518 10f0 85C0     		testl	%eax, %eax
 1519 10f2 7435     		je	L107
 1520 10f4 8B45F0   		movl	-16(%ebp), %eax
 1521 10f7 69C08C01 		imull	$396, %eax, %eax
 1521      0000
 1522 10fd 05100100 		addl	$_cpuTaskCtrl+240, %eax
 1522      00
 1523 1102 8B08     		movl	(%eax), %ecx
 1524 1104 8B45E8   		movl	-24(%ebp), %eax
 1525 1107 8B55EC   		movl	-20(%ebp), %edx
 1526 110a 8944240C 		movl	%eax, 12(%esp)
 1527 110e 89542410 		movl	%edx, 16(%esp)
 1528 1112 C7442408 		movl	$66, 8(%esp)
 1528      42000000 
 1529 111a 894C2404 		movl	%ecx, 4(%esp)
 1530 111e 8B4508   		movl	8(%ebp), %eax
 1531 1121 890424   		movl	%eax, (%esp)
 1532 1124 E8C20D00 		call	_prvListTaskWithinSingleList
 1532      00
 1533              	L107:
 1534 1129 8B45F0   		movl	-16(%ebp), %eax
 1535 112c 69C08C01 		imull	$396, %eax, %eax
 1535      0000
 1536 1132 05100100 		addl	$_cpuTaskCtrl+240, %eax
 1536      00
 1537 1137 8B4004   		movl	4(%eax), %eax
 1538 113a 8B00     		movl	(%eax), %eax
 1539 113c 85C0     		testl	%eax, %eax
 1540 113e 7436     		je	L108
 1541 1140 8B45F0   		movl	-16(%ebp), %eax
 1542 1143 69C08C01 		imull	$396, %eax, %eax
 1542      0000
 1543 1149 05100100 		addl	$_cpuTaskCtrl+240, %eax
 1543      00
 1544 114e 8B4804   		movl	4(%eax), %ecx
 1545 1151 8B45E8   		movl	-24(%ebp), %eax
 1546 1154 8B55EC   		movl	-20(%ebp), %edx
 1547 1157 8944240C 		movl	%eax, 12(%esp)
 1548 115b 89542410 		movl	%edx, 16(%esp)
 1549 115f C7442408 		movl	$66, 8(%esp)
 1549      42000000 
 1550 1167 894C2404 		movl	%ecx, 4(%esp)
 1551 116b 8B4508   		movl	8(%ebp), %eax
 1552 116e 890424   		movl	%eax, (%esp)
 1553 1171 E8750D00 		call	_prvListTaskWithinSingleList
 1553      00
 1554              	L108:
 1555 1176 8B45F0   		movl	-16(%ebp), %eax
 1556 1179 69C08C01 		imull	$396, %eax, %eax
 1556      0000
 1557 117f 05200100 		addl	$_cpuTaskCtrl+256, %eax
 1557      00
 1558 1184 8B400C   		movl	12(%eax), %eax
 1559 1187 85C0     		testl	%eax, %eax
 1560 1189 743B     		je	L109
 1561 118b 8B45F0   		movl	-16(%ebp), %eax
 1562 118e 69C08C01 		imull	$396, %eax, %eax
 1562      0000
 1563 1194 05000100 		addl	$256, %eax
 1563      00
 1564 1199 05200000 		addl	$_cpuTaskCtrl, %eax
 1564      00
 1565 119e 8D480C   		leal	12(%eax), %ecx
 1566 11a1 8B45E8   		movl	-24(%ebp), %eax
 1567 11a4 8B55EC   		movl	-20(%ebp), %edx
 1568 11a7 8944240C 		movl	%eax, 12(%esp)
 1569 11ab 89542410 		movl	%edx, 16(%esp)
 1570 11af C7442408 		movl	$68, 8(%esp)
 1570      44000000 
 1571 11b7 894C2404 		movl	%ecx, 4(%esp)
 1572 11bb 8B4508   		movl	8(%ebp), %eax
 1573 11be 890424   		movl	%eax, (%esp)
 1574 11c1 E8250D00 		call	_prvListTaskWithinSingleList
 1574      00
 1575              	L109:
 1576 11c6 8B45F0   		movl	-16(%ebp), %eax
 1577 11c9 69C08C01 		imull	$396, %eax, %eax
 1577      0000
 1578 11cf 05400100 		addl	$_cpuTaskCtrl+288, %eax
 1578      00
 1579 11d4 8B4004   		movl	4(%eax), %eax
 1580 11d7 85C0     		testl	%eax, %eax
 1581 11d9 743B     		je	L110
 1582 11db 8B45F0   		movl	-16(%ebp), %eax
 1583 11de 69C08C01 		imull	$396, %eax, %eax
 1583      0000
 1584 11e4 05200100 		addl	$288, %eax
 1584      00
 1585 11e9 05200000 		addl	$_cpuTaskCtrl, %eax
 1585      00
 1586 11ee 8D4804   		leal	4(%eax), %ecx
 1587 11f1 8B45E8   		movl	-24(%ebp), %eax
 1588 11f4 8B55EC   		movl	-20(%ebp), %edx
 1589 11f7 8944240C 		movl	%eax, 12(%esp)
 1590 11fb 89542410 		movl	%edx, 16(%esp)
 1591 11ff C7442408 		movl	$83, 8(%esp)
 1591      53000000 
 1592 1207 894C2404 		movl	%ecx, 4(%esp)
 1593 120b 8B4508   		movl	8(%ebp), %eax
 1594 120e 890424   		movl	%eax, (%esp)
 1595 1211 E8D50C00 		call	_prvListTaskWithinSingleList
 1595      00
 1596              	L110:
 1597 1216 8B45F0   		movl	-16(%ebp), %eax
 1598 1219 890424   		movl	%eax, (%esp)
 1599 121c E8B5FAFF 		call	_xTaskResumeCpu
 1599      FF
 1600 1221 8345F001 		addl	$1, -16(%ebp)
 1601              	L104:
 1602 1225 0FB60500 		movzbl	_bCpuConfigured, %eax
 1602      000000
 1603 122c 0FB6C0   		movzbl	%al, %eax
 1604 122f 3B45F0   		cmpl	-16(%ebp), %eax
 1605 1232 0F8F15FE 		jg	L111
 1605      FFFF
 1606 1238 C9       		leave
 1607              		.cfi_restore 5
 1608              		.cfi_def_cfa 4, 4
 1609 1239 C3       		ret
 1610              		.cfi_endproc
 1611              	LFE17:
 1612              		.globl	_vTaskLockTake
 1613              		.def	_vTaskLockTake;	.scl	2;	.type	32;	.endef
 1614              	_vTaskLockTake:
 1615              	LFB18:
 1616              		.cfi_startproc
 1617 123a 55       		pushl	%ebp
 1618              		.cfi_def_cfa_offset 8
 1619              		.cfi_offset 5, -8
 1620 123b 89E5     		movl	%esp, %ebp
 1621              		.cfi_def_cfa_register 5
 1622 123d 83EC18   		subl	$24, %esp
 1623 1240 8B4508   		movl	8(%ebp), %eax
 1624 1243 69C08C01 		imull	$396, %eax, %eax
 1624      0000
 1625 1249 05600100 		addl	$352, %eax
 1625      00
 1626 124e 05200000 		addl	$_cpuTaskCtrl, %eax
 1626      00
 1627 1253 8D5004   		leal	4(%eax), %edx
 1628 1256 8B450C   		movl	12(%ebp), %eax
 1629 1259 89442404 		movl	%eax, 4(%esp)
 1630 125d 891424   		movl	%edx, (%esp)
 1631 1260 E8000000 		call	_spinLockTake
 1631      00
 1632 1265 C9       		leave
 1633              		.cfi_restore 5
 1634              		.cfi_def_cfa 4, 4
 1635 1266 C3       		ret
 1636              		.cfi_endproc
 1637              	LFE18:
 1638              		.globl	_vTaskLockGive
 1639              		.def	_vTaskLockGive;	.scl	2;	.type	32;	.endef
 1640              	_vTaskLockGive:
 1641              	LFB19:
 1642              		.cfi_startproc
 1643 1267 55       		pushl	%ebp
 1644              		.cfi_def_cfa_offset 8
 1645              		.cfi_offset 5, -8
 1646 1268 89E5     		movl	%esp, %ebp
 1647              		.cfi_def_cfa_register 5
 1648 126a 83EC18   		subl	$24, %esp
 1649 126d 8B4508   		movl	8(%ebp), %eax
 1650 1270 69C08C01 		imull	$396, %eax, %eax
 1650      0000
 1651 1276 05600100 		addl	$352, %eax
 1651      00
 1652 127b 05200000 		addl	$_cpuTaskCtrl, %eax
 1652      00
 1653 1280 8D5004   		leal	4(%eax), %edx
 1654 1283 8B450C   		movl	12(%ebp), %eax
 1655 1286 89442404 		movl	%eax, 4(%esp)
 1656 128a 891424   		movl	%edx, (%esp)
 1657 128d E8000000 		call	_spinLockGive
 1657      00
 1658 1292 C9       		leave
 1659              		.cfi_restore 5
 1660              		.cfi_def_cfa 4, 4
 1661 1293 C3       		ret
 1662              		.cfi_endproc
 1663              	LFE19:
 1664              		.globl	_vTaskStartSchedulerRunning
 1665              		.def	_vTaskStartSchedulerRunning;	.scl	2;	.type	32;	.endef
 1666              	_vTaskStartSchedulerRunning:
 1667              	LFB20:
 1668              		.cfi_startproc
 1669 1294 55       		pushl	%ebp
 1670              		.cfi_def_cfa_offset 8
 1671              		.cfi_offset 5, -8
 1672 1295 89E5     		movl	%esp, %ebp
 1673              		.cfi_def_cfa_register 5
 1674 1297 83EC18   		subl	$24, %esp
 1675 129a 0FB60500 		movzbl	_bCpuConfigured, %eax
 1675      000000
 1676 12a1 0FB6C0   		movzbl	%al, %eax
 1677 12a4 3B4508   		cmpl	8(%ebp), %eax
 1678 12a7 7E57     		jle	L114
 1679 12a9 8B4508   		movl	8(%ebp), %eax
 1680 12ac 69C08C01 		imull	$396, %eax, %eax
 1680      0000
 1681 12b2 05500100 		addl	$336, %eax
 1681      00
 1682 12b7 05200000 		addl	$_cpuTaskCtrl, %eax
 1682      00
 1683 12bc 890424   		movl	%eax, (%esp)
 1684 12bf E8000000 		call	_atomic32Dec
 1684      00
 1685 12c4 8B4508   		movl	8(%ebp), %eax
 1686 12c7 69C08C01 		imull	$396, %eax, %eax
 1686      0000
 1687 12cd 05400100 		addl	$320, %eax
 1687      00
 1688 12d2 05200000 		addl	$_cpuTaskCtrl, %eax
 1688      00
 1689 12d7 83C00C   		addl	$12, %eax
 1690 12da 890424   		movl	%eax, (%esp)
 1691 12dd E8000000 		call	_atomic32Dec
 1691      00
 1692 12e2 8B4508   		movl	8(%ebp), %eax
 1693 12e5 69C08C01 		imull	$396, %eax, %eax
 1693      0000
 1694 12eb 05400100 		addl	$320, %eax
 1694      00
 1695 12f0 05200000 		addl	$_cpuTaskCtrl, %eax
 1695      00
 1696 12f5 83C008   		addl	$8, %eax
 1697 12f8 890424   		movl	%eax, (%esp)
 1698 12fb E8000000 		call	_atomic32Inc
 1698      00
 1699              	L114:
 1700 1300 C9       		leave
 1701              		.cfi_restore 5
 1702              		.cfi_def_cfa 4, 4
 1703 1301 C3       		ret
 1704              		.cfi_endproc
 1705              	LFE20:
 1706              		.globl	_vTaskSetContextSwitching
 1707              		.def	_vTaskSetContextSwitching;	.scl	2;	.type	32;	.endef
 1708              	_vTaskSetContextSwitching:
 1709              	LFB21:
 1710              		.cfi_startproc
 1711 1302 55       		pushl	%ebp
 1712              		.cfi_def_cfa_offset 8
 1713              		.cfi_offset 5, -8
 1714 1303 89E5     		movl	%esp, %ebp
 1715              		.cfi_def_cfa_register 5
 1716 1305 83EC18   		subl	$24, %esp
 1717 1308 0FB60500 		movzbl	_bCpuConfigured, %eax
 1717      000000
 1718 130f 0FB6C0   		movzbl	%al, %eax
 1719 1312 3B4508   		cmpl	8(%ebp), %eax
 1720 1315 7E62     		jle	L116
 1721 1317 837D0C00 		cmpl	$0, 12(%ebp)
 1722 131b 742F     		je	L118
 1723 131d 8B4508   		movl	8(%ebp), %eax
 1724 1320 69C08C01 		imull	$396, %eax, %eax
 1724      0000
 1725 1326 05500100 		addl	$336, %eax
 1725      00
 1726 132b 05200000 		addl	$_cpuTaskCtrl, %eax
 1726      00
 1727 1330 890424   		movl	%eax, (%esp)
 1728 1333 E8000000 		call	_atomic32Dec
 1728      00
 1729 1338 8B450C   		movl	12(%ebp), %eax
 1730 133b 89442404 		movl	%eax, 4(%esp)
 1731 133f 8B4508   		movl	8(%ebp), %eax
 1732 1342 890424   		movl	%eax, (%esp)
 1733 1345 E8000000 		call	_vPortSetContextSwitching
 1733      00
 1734 134a EB2D     		jmp	L116
 1735              	L118:
 1736 134c 8B4508   		movl	8(%ebp), %eax
 1737 134f 69C08C01 		imull	$396, %eax, %eax
 1737      0000
 1738 1355 05500100 		addl	$336, %eax
 1738      00
 1739 135a 05200000 		addl	$_cpuTaskCtrl, %eax
 1739      00
 1740 135f 890424   		movl	%eax, (%esp)
 1741 1362 E8000000 		call	_atomic32Inc
 1741      00
 1742 1367 8B450C   		movl	12(%ebp), %eax
 1743 136a 89442404 		movl	%eax, 4(%esp)
 1744 136e 8B4508   		movl	8(%ebp), %eax
 1745 1371 890424   		movl	%eax, (%esp)
 1746 1374 E8000000 		call	_vPortSetContextSwitching
 1746      00
 1747              	L116:
 1748 1379 C9       		leave
 1749              		.cfi_restore 5
 1750              		.cfi_def_cfa 4, 4
 1751 137a C3       		ret
 1752              		.cfi_endproc
 1753              	LFE21:
 1754              		.globl	_vTaskGetFirstExecute
 1755              		.def	_vTaskGetFirstExecute;	.scl	2;	.type	32;	.endef
 1756              	_vTaskGetFirstExecute:
 1757              	LFB22:
 1758              		.cfi_startproc
 1759 137b 55       		pushl	%ebp
 1760              		.cfi_def_cfa_offset 8
 1761              		.cfi_offset 5, -8
 1762 137c 89E5     		movl	%esp, %ebp
 1763              		.cfi_def_cfa_register 5
 1764 137e 8B4508   		movl	8(%ebp), %eax
 1765 1381 0FB74046 		movzwl	70(%eax), %eax
 1766 1385 6683F801 		cmpw	$1, %ax
 1767 1389 7507     		jne	L120
 1768 138b B8010000 		movl	$1, %eax
 1768      00
 1769 1390 EB05     		jmp	L121
 1770              	L120:
 1771 1392 B8000000 		movl	$0, %eax
 1771      00
 1772              	L121:
 1773 1397 5D       		popl	%ebp
 1774              		.cfi_restore 5
 1775              		.cfi_def_cfa 4, 4
 1776 1398 C3       		ret
 1777              		.cfi_endproc
 1778              	LFE22:
 1779              		.globl	_vTaskSetFirstExecute
 1780              		.def	_vTaskSetFirstExecute;	.scl	2;	.type	32;	.endef
 1781              	_vTaskSetFirstExecute:
 1782              	LFB23:
 1783              		.cfi_startproc
 1784 1399 55       		pushl	%ebp
 1785              		.cfi_def_cfa_offset 8
 1786              		.cfi_offset 5, -8
 1787 139a 89E5     		movl	%esp, %ebp
 1788              		.cfi_def_cfa_register 5
 1789 139c 83EC04   		subl	$4, %esp
 1790 139f 8B450C   		movl	12(%ebp), %eax
 1791 13a2 668945FC 		movw	%ax, -4(%ebp)
 1792 13a6 8B4508   		movl	8(%ebp), %eax
 1793 13a9 0FB755FC 		movzwl	-4(%ebp), %edx
 1794 13ad 66895046 		movw	%dx, 70(%eax)
 1795 13b1 C9       		leave
 1796              		.cfi_restore 5
 1797              		.cfi_def_cfa 4, 4
 1798 13b2 C3       		ret
 1799              		.cfi_endproc
 1800              	LFE23:
 1801              		.globl	_uxTaskNumGet
 1802              		.def	_uxTaskNumGet;	.scl	2;	.type	32;	.endef
 1803              	_uxTaskNumGet:
 1804              	LFB24:
 1805              		.cfi_startproc
 1806 13b3 55       		pushl	%ebp
 1807              		.cfi_def_cfa_offset 8
 1808              		.cfi_offset 5, -8
 1809 13b4 89E5     		movl	%esp, %ebp
 1810              		.cfi_def_cfa_register 5
 1811 13b6 83EC28   		subl	$40, %esp
 1812 13b9 C7442404 		movl	$0, 4(%esp)
 1812      00000000 
 1813 13c1 8B4508   		movl	8(%ebp), %eax
 1814 13c4 890424   		movl	%eax, (%esp)
 1815 13c7 E86EFEFF 		call	_vTaskLockTake
 1815      FF
 1816 13cc 837D0C00 		cmpl	$0, 12(%ebp)
 1817 13d0 750C     		jne	L124
 1818 13d2 8B4508   		movl	8(%ebp), %eax
 1819 13d5 8B048500 		movl	_pxCurrentTCB(,%eax,4), %eax
 1819      000000
 1820 13dc EB03     		jmp	L125
 1821              	L124:
 1822 13de 8B450C   		movl	12(%ebp), %eax
 1823              	L125:
 1824 13e1 8945F4   		movl	%eax, -12(%ebp)
 1825 13e4 8B45F4   		movl	-12(%ebp), %eax
 1826 13e7 8B4048   		movl	72(%eax), %eax
 1827 13ea 83C001   		addl	$1, %eax
 1828 13ed 8945F0   		movl	%eax, -16(%ebp)
 1829 13f0 C7442404 		movl	$0, 4(%esp)
 1829      00000000 
 1830 13f8 8B4508   		movl	8(%ebp), %eax
 1831 13fb 890424   		movl	%eax, (%esp)
 1832 13fe E864FEFF 		call	_vTaskLockGive
 1832      FF
 1833 1403 8B45F0   		movl	-16(%ebp), %eax
 1834 1406 C9       		leave
 1835              		.cfi_restore 5
 1836              		.cfi_def_cfa 4, 4
 1837 1407 C3       		ret
 1838              		.cfi_endproc
 1839              	LFE24:
 1840              		.globl	_vTaskIncrementTick
 1841              		.def	_vTaskIncrementTick;	.scl	2;	.type	32;	.endef
 1842              	_vTaskIncrementTick:
 1843              	LFB25:
 1844              		.cfi_startproc
 1845 1408 55       		pushl	%ebp
 1846              		.cfi_def_cfa_offset 8
 1847              		.cfi_offset 5, -8
 1848 1409 89E5     		movl	%esp, %ebp
 1849              		.cfi_def_cfa_register 5
 1850 140b 53       		pushl	%ebx
 1851 140c 83EC24   		subl	$36, %esp
 1852              		.cfi_offset 3, -12
 1853 140f 8B4508   		movl	8(%ebp), %eax
 1854 1412 69C08C01 		imull	$396, %eax, %eax
 1854      0000
 1855 1418 05400100 		addl	$320, %eax
 1855      00
 1856 141d 05200000 		addl	$_cpuTaskCtrl, %eax
 1856      00
 1857 1422 83C00C   		addl	$12, %eax
 1858 1425 890424   		movl	%eax, (%esp)
 1859 1428 E8000000 		call	_atomic32Get
 1859      00
 1860 142d 85C0     		testl	%eax, %eax
 1861 142f 0F858701 		jne	L128
 1861      0000
 1862 1435 8B4508   		movl	8(%ebp), %eax
 1863 1438 69C08C01 		imull	$396, %eax, %eax
 1863      0000
 1864 143e 05300100 		addl	$304, %eax
 1864      00
 1865 1443 05200000 		addl	$_cpuTaskCtrl, %eax
 1865      00
 1866 1448 83C00C   		addl	$12, %eax
 1867 144b 890424   		movl	%eax, (%esp)
 1868 144e E8000000 		call	_atomic32Inc
 1868      00
 1869 1453 8B4508   		movl	8(%ebp), %eax
 1870 1456 69C08C01 		imull	$396, %eax, %eax
 1870      0000
 1871 145c 05500100 		addl	$_cpuTaskCtrl+304, %eax
 1871      00
 1872 1461 8B400C   		movl	12(%eax), %eax
 1873 1464 85C0     		testl	%eax, %eax
 1874 1466 0F851101 		jne	L130
 1874      0000
 1875 146c 8B4508   		movl	8(%ebp), %eax
 1876 146f 69C08C01 		imull	$396, %eax, %eax
 1876      0000
 1877 1475 05100100 		addl	$_cpuTaskCtrl+240, %eax
 1877      00
 1878 147a 8B00     		movl	(%eax), %eax
 1879 147c 8945F4   		movl	%eax, -12(%ebp)
 1880 147f 8B4508   		movl	8(%ebp), %eax
 1881 1482 69C08C01 		imull	$396, %eax, %eax
 1881      0000
 1882 1488 05100100 		addl	$_cpuTaskCtrl+240, %eax
 1882      00
 1883 148d 8B4004   		movl	4(%eax), %eax
 1884 1490 8B5508   		movl	8(%ebp), %edx
 1885 1493 69D28C01 		imull	$396, %edx, %edx
 1885      0000
 1886 1499 81C21001 		addl	$_cpuTaskCtrl+240, %edx
 1886      0000
 1887 149f 8902     		movl	%eax, (%edx)
 1888 14a1 8B4508   		movl	8(%ebp), %eax
 1889 14a4 69C08C01 		imull	$396, %eax, %eax
 1889      0000
 1890 14aa 8D901001 		leal	_cpuTaskCtrl+240(%eax), %edx
 1890      0000
 1891 14b0 8B45F4   		movl	-12(%ebp), %eax
 1892 14b3 894204   		movl	%eax, 4(%edx)
 1893 14b6 8B4508   		movl	8(%ebp), %eax
 1894 14b9 69C08C01 		imull	$396, %eax, %eax
 1894      0000
 1895 14bf 05500100 		addl	$336, %eax
 1895      00
 1896 14c4 05200000 		addl	$_cpuTaskCtrl, %eax
 1896      00
 1897 14c9 83C00C   		addl	$12, %eax
 1898 14cc 890424   		movl	%eax, (%esp)
 1899 14cf E8000000 		call	_atomic32Inc
 1899      00
 1900 14d4 E9A40000 		jmp	L130
 1900      00
 1901              	L136:
 1902 14d9 8B4508   		movl	8(%ebp), %eax
 1903 14dc 69C08C01 		imull	$396, %eax, %eax
 1903      0000
 1904 14e2 05500100 		addl	$_cpuTaskCtrl+304, %eax
 1904      00
 1905 14e7 8B500C   		movl	12(%eax), %edx
 1906 14ea 8B4304   		movl	4(%ebx), %eax
 1907 14ed 39C2     		cmpl	%eax, %edx
 1908 14ef 0F82E500 		jb	L127
 1908      0000
 1909 14f5 8D4304   		leal	4(%ebx), %eax
 1910 14f8 890424   		movl	%eax, (%esp)
 1911 14fb E8000000 		call	_vListRemove
 1911      00
 1912 1500 8B4328   		movl	40(%ebx), %eax
 1913 1503 85C0     		testl	%eax, %eax
 1914 1505 740B     		je	L132
 1915 1507 8D4318   		leal	24(%ebx), %eax
 1916 150a 890424   		movl	%eax, (%esp)
 1917 150d E8000000 		call	_vListRemove
 1917      00
 1918              	L132:
 1919 1512 8B532C   		movl	44(%ebx), %edx
 1920 1515 8B4508   		movl	8(%ebp), %eax
 1921 1518 69C08C01 		imull	$396, %eax, %eax
 1921      0000
 1922 151e 05600100 		addl	$_cpuTaskCtrl+320, %eax
 1922      00
 1923 1523 8B4004   		movl	4(%eax), %eax
 1924 1526 39C2     		cmpl	%eax, %edx
 1925 1528 7627     		jbe	L133
 1926 152a 8B432C   		movl	44(%ebx), %eax
 1927 152d 8B5508   		movl	8(%ebp), %edx
 1928 1530 69D28C01 		imull	$396, %edx, %edx
 1928      0000
 1929 1536 81C24001 		addl	$320, %edx
 1929      0000
 1930 153c 81C22000 		addl	$_cpuTaskCtrl, %edx
 1930      0000
 1931 1542 83C204   		addl	$4, %edx
 1932 1545 89442404 		movl	%eax, 4(%esp)
 1933 1549 891424   		movl	%edx, (%esp)
 1934 154c E8000000 		call	_atomic32Set
 1934      00
 1935              	L133:
 1936 1551 8D4B04   		leal	4(%ebx), %ecx
 1937 1554 8B532C   		movl	44(%ebx), %edx
 1938 1557 89D0     		movl	%edx, %eax
 1939 1559 C1E002   		sall	$2, %eax
 1940 155c 01D0     		addl	%edx, %eax
 1941 155e C1E002   		sall	$2, %eax
 1942 1561 8B5508   		movl	8(%ebp), %edx
 1943 1564 69D28C01 		imull	$396, %edx, %edx
 1943      0000
 1944 156a 01D0     		addl	%edx, %eax
 1945 156c 05200000 		addl	$_cpuTaskCtrl, %eax
 1945      00
 1946 1571 894C2404 		movl	%ecx, 4(%esp)
 1947 1575 890424   		movl	%eax, (%esp)
 1948 1578 E8000000 		call	_vListInsertEnd
 1948      00
 1949              	L130:
 1950 157d 8B4508   		movl	8(%ebp), %eax
 1951 1580 69C08C01 		imull	$396, %eax, %eax
 1951      0000
 1952 1586 05100100 		addl	$_cpuTaskCtrl+240, %eax
 1952      00
 1953 158b 8B00     		movl	(%eax), %eax
 1954 158d 8B00     		movl	(%eax), %eax
 1955 158f 85C0     		testl	%eax, %eax
 1956 1591 7418     		je	L134
 1957 1593 8B4508   		movl	8(%ebp), %eax
 1958 1596 69C08C01 		imull	$396, %eax, %eax
 1958      0000
 1959 159c 05100100 		addl	$_cpuTaskCtrl+240, %eax
 1959      00
 1960 15a1 8B00     		movl	(%eax), %eax
 1961 15a3 8B400C   		movl	12(%eax), %eax
 1962 15a6 8B400C   		movl	12(%eax), %eax
 1963 15a9 EB05     		jmp	L135
 1964              	L134:
 1965 15ab B8000000 		movl	$0, %eax
 1965      00
 1966              	L135:
 1967 15b0 89C3     		movl	%eax, %ebx
 1968 15b2 85DB     		testl	%ebx, %ebx
 1969 15b4 0F851FFF 		jne	L136
 1969      FFFF
 1970 15ba EB1E     		jmp	L127
 1971              	L128:
 1972 15bc 8B4508   		movl	8(%ebp), %eax
 1973 15bf 69C08C01 		imull	$396, %eax, %eax
 1973      0000
 1974 15c5 05500100 		addl	$336, %eax
 1974      00
 1975 15ca 05200000 		addl	$_cpuTaskCtrl, %eax
 1975      00
 1976 15cf 83C004   		addl	$4, %eax
 1977 15d2 890424   		movl	%eax, (%esp)
 1978 15d5 E8000000 		call	_atomic32Inc
 1978      00
 1979              	L127:
 1980 15da 83C424   		addl	$36, %esp
 1981 15dd 5B       		popl	%ebx
 1982              		.cfi_restore 3
 1983 15de 5D       		popl	%ebp
 1984              		.cfi_restore 5
 1985              		.cfi_def_cfa 4, 4
 1986 15df C3       		ret
 1987              		.cfi_endproc
 1988              	LFE25:
 1989              		.globl	_vTaskSwitchContext
 1990              		.def	_vTaskSwitchContext;	.scl	2;	.type	32;	.endef
 1991              	_vTaskSwitchContext:
 1992              	LFB26:
 1993              		.cfi_startproc
 1994 15e0 55       		pushl	%ebp
 1995              		.cfi_def_cfa_offset 8
 1996              		.cfi_offset 5, -8
 1997 15e1 89E5     		movl	%esp, %ebp
 1998              		.cfi_def_cfa_register 5
 1999 15e3 83EC28   		subl	$40, %esp
 2000 15e6 8B4508   		movl	8(%ebp), %eax
 2001 15e9 69C08C01 		imull	$396, %eax, %eax
 2001      0000
 2002 15ef 05400100 		addl	$320, %eax
 2002      00
 2003 15f4 05200000 		addl	$_cpuTaskCtrl, %eax
 2003      00
 2004 15f9 83C00C   		addl	$12, %eax
 2005 15fc 890424   		movl	%eax, (%esp)
 2006 15ff E8000000 		call	_atomic32Get
 2006      00
 2007 1604 85C0     		testl	%eax, %eax
 2008 1606 751F     		jne	L138
 2009 1608 8B4508   		movl	8(%ebp), %eax
 2010 160b 69C08C01 		imull	$396, %eax, %eax
 2010      0000
 2011 1611 05500100 		addl	$336, %eax
 2011      00
 2012 1616 05200000 		addl	$_cpuTaskCtrl, %eax
 2012      00
 2013 161b 890424   		movl	%eax, (%esp)
 2014 161e E8000000 		call	_atomic32Get
 2014      00
 2015 1623 85C0     		testl	%eax, %eax
 2016 1625 744B     		je	L144
 2017              	L138:
 2018 1627 8B4508   		movl	8(%ebp), %eax
 2019 162a 69C08C01 		imull	$396, %eax, %eax
 2019      0000
 2020 1630 05500100 		addl	$336, %eax
 2020      00
 2021 1635 05200000 		addl	$_cpuTaskCtrl, %eax
 2021      00
 2022 163a 83C008   		addl	$8, %eax
 2023 163d C7442404 		movl	$1, 4(%esp)
 2023      01000000 
 2024 1645 890424   		movl	%eax, (%esp)
 2025 1648 E8000000 		call	_atomic32Set
 2025      00
 2026 164d E9C10000 		jmp	L137
 2026      00
 2027              	L142:
 2028 1652 8B4508   		movl	8(%ebp), %eax
 2029 1655 69C08C01 		imull	$396, %eax, %eax
 2029      0000
 2030 165b 05400100 		addl	$320, %eax
 2030      00
 2031 1660 05200000 		addl	$_cpuTaskCtrl, %eax
 2031      00
 2032 1665 83C004   		addl	$4, %eax
 2033 1668 890424   		movl	%eax, (%esp)
 2034 166b E8000000 		call	_atomic32Dec
 2034      00
 2035 1670 EB01     		jmp	L141
 2036              	L144:
 2037 1672 90       		nop
 2038              	L141:
 2039 1673 8B4508   		movl	8(%ebp), %eax
 2040 1676 69C08C01 		imull	$396, %eax, %eax
 2040      0000
 2041 167c 05600100 		addl	$_cpuTaskCtrl+320, %eax
 2041      00
 2042 1681 8B5004   		movl	4(%eax), %edx
 2043 1684 8B4D08   		movl	8(%ebp), %ecx
 2044 1687 89D0     		movl	%edx, %eax
 2045 1689 C1E002   		sall	$2, %eax
 2046 168c 01D0     		addl	%edx, %eax
 2047 168e C1E002   		sall	$2, %eax
 2048 1691 69D18C01 		imull	$396, %ecx, %edx
 2048      0000
 2049 1697 01D0     		addl	%edx, %eax
 2050 1699 05200000 		addl	$_cpuTaskCtrl, %eax
 2050      00
 2051 169e 8B00     		movl	(%eax), %eax
 2052 16a0 85C0     		testl	%eax, %eax
 2053 16a2 74AE     		je	L142
 2054 16a4 8B4508   		movl	8(%ebp), %eax
 2055 16a7 69C08C01 		imull	$396, %eax, %eax
 2055      0000
 2056 16ad 05600100 		addl	$_cpuTaskCtrl+320, %eax
 2056      00
 2057 16b2 8B5004   		movl	4(%eax), %edx
 2058 16b5 89D0     		movl	%edx, %eax
 2059 16b7 C1E002   		sall	$2, %eax
 2060 16ba 01D0     		addl	%edx, %eax
 2061 16bc C1E002   		sall	$2, %eax
 2062 16bf 8B5508   		movl	8(%ebp), %edx
 2063 16c2 69D28C01 		imull	$396, %edx, %edx
 2063      0000
 2064 16c8 01D0     		addl	%edx, %eax
 2065 16ca 05200000 		addl	$_cpuTaskCtrl, %eax
 2065      00
 2066 16cf 8945F4   		movl	%eax, -12(%ebp)
 2067 16d2 8B45F4   		movl	-12(%ebp), %eax
 2068 16d5 8B4004   		movl	4(%eax), %eax
 2069 16d8 8B5004   		movl	4(%eax), %edx
 2070 16db 8B45F4   		movl	-12(%ebp), %eax
 2071 16de 895004   		movl	%edx, 4(%eax)
 2072 16e1 8B45F4   		movl	-12(%ebp), %eax
 2073 16e4 8B4004   		movl	4(%eax), %eax
 2074 16e7 8B55F4   		movl	-12(%ebp), %edx
 2075 16ea 83C208   		addl	$8, %edx
 2076 16ed 39D0     		cmpl	%edx, %eax
 2077 16ef 750F     		jne	L143
 2078 16f1 8B45F4   		movl	-12(%ebp), %eax
 2079 16f4 8B4004   		movl	4(%eax), %eax
 2080 16f7 8B5004   		movl	4(%eax), %edx
 2081 16fa 8B45F4   		movl	-12(%ebp), %eax
 2082 16fd 895004   		movl	%edx, 4(%eax)
 2083              	L143:
 2084 1700 8B45F4   		movl	-12(%ebp), %eax
 2085 1703 8B4004   		movl	4(%eax), %eax
 2086 1706 8B500C   		movl	12(%eax), %edx
 2087 1709 8B4508   		movl	8(%ebp), %eax
 2088 170c 89148500 		movl	%edx, _pxCurrentTCB(,%eax,4)
 2088      000000
 2089              	L137:
 2090 1713 C9       		leave
 2091              		.cfi_restore 5
 2092              		.cfi_def_cfa 4, 4
 2093 1714 C3       		ret
 2094              		.cfi_endproc
 2095              	LFE26:
 2096              		.globl	_vTaskPlaceOnEventList
 2097              		.def	_vTaskPlaceOnEventList;	.scl	2;	.type	32;	.endef
 2098              	_vTaskPlaceOnEventList:
 2099              	LFB27:
 2100              		.cfi_startproc
 2101 1715 55       		pushl	%ebp
 2102              		.cfi_def_cfa_offset 8
 2103              		.cfi_offset 5, -8
 2104 1716 89E5     		movl	%esp, %ebp
 2105              		.cfi_def_cfa_register 5
 2106 1718 83EC28   		subl	$40, %esp
 2107 171b C7442404 		movl	$0, 4(%esp)
 2107      00000000 
 2108 1723 8B4508   		movl	8(%ebp), %eax
 2109 1726 890424   		movl	%eax, (%esp)
 2110 1729 E80CFBFF 		call	_vTaskLockTake
 2110      FF
 2111 172e 8B4508   		movl	8(%ebp), %eax
 2112 1731 8B048500 		movl	_pxCurrentTCB(,%eax,4), %eax
 2112      000000
 2113 1738 8945F4   		movl	%eax, -12(%ebp)
 2114 173b 8B45F4   		movl	-12(%ebp), %eax
 2115 173e 83C018   		addl	$24, %eax
 2116 1741 89442404 		movl	%eax, 4(%esp)
 2117 1745 8B450C   		movl	12(%ebp), %eax
 2118 1748 890424   		movl	%eax, (%esp)
 2119 174b E8000000 		call	_vListInsert
 2119      00
 2120 1750 8B45F4   		movl	-12(%ebp), %eax
 2121 1753 83C004   		addl	$4, %eax
 2122 1756 890424   		movl	%eax, (%esp)
 2123 1759 E8000000 		call	_vListRemove
 2123      00
 2124 175e 837D10FF 		cmpl	$-1, 16(%ebp)
 2125 1762 752A     		jne	L146
 2126 1764 8B45F4   		movl	-12(%ebp), %eax
 2127 1767 8D5004   		leal	4(%eax), %edx
 2128 176a 8B4508   		movl	8(%ebp), %eax
 2129 176d 69C08C01 		imull	$396, %eax, %eax
 2129      0000
 2130 1773 05200100 		addl	$288, %eax
 2130      00
 2131 1778 05200000 		addl	$_cpuTaskCtrl, %eax
 2131      00
 2132 177d 83C004   		addl	$4, %eax
 2133 1780 89542404 		movl	%edx, 4(%esp)
 2134 1784 890424   		movl	%eax, (%esp)
 2135 1787 E8000000 		call	_vListInsertEnd
 2135      00
 2136 178c EB7F     		jmp	L147
 2137              	L146:
 2138 178e 8B4508   		movl	8(%ebp), %eax
 2139 1791 69C08C01 		imull	$396, %eax, %eax
 2139      0000
 2140 1797 05500100 		addl	$_cpuTaskCtrl+304, %eax
 2140      00
 2141 179c 8B500C   		movl	12(%eax), %edx
 2142 179f 8B4510   		movl	16(%ebp), %eax
 2143 17a2 01D0     		addl	%edx, %eax
 2144 17a4 8945F0   		movl	%eax, -16(%ebp)
 2145 17a7 8B45F4   		movl	-12(%ebp), %eax
 2146 17aa 8B55F0   		movl	-16(%ebp), %edx
 2147 17ad 895004   		movl	%edx, 4(%eax)
 2148 17b0 8B4508   		movl	8(%ebp), %eax
 2149 17b3 69C08C01 		imull	$396, %eax, %eax
 2149      0000
 2150 17b9 05500100 		addl	$_cpuTaskCtrl+304, %eax
 2150      00
 2151 17be 8B400C   		movl	12(%eax), %eax
 2152 17c1 3B45F0   		cmpl	-16(%ebp), %eax
 2153 17c4 7625     		jbe	L148
 2154 17c6 8B45F4   		movl	-12(%ebp), %eax
 2155 17c9 8D5004   		leal	4(%eax), %edx
 2156 17cc 8B4508   		movl	8(%ebp), %eax
 2157 17cf 69C08C01 		imull	$396, %eax, %eax
 2157      0000
 2158 17d5 05100100 		addl	$_cpuTaskCtrl+240, %eax
 2158      00
 2159 17da 8B4004   		movl	4(%eax), %eax
 2160 17dd 89542404 		movl	%edx, 4(%esp)
 2161 17e1 890424   		movl	%eax, (%esp)
 2162 17e4 E8000000 		call	_vListInsert
 2162      00
 2163 17e9 EB22     		jmp	L147
 2164              	L148:
 2165 17eb 8B45F4   		movl	-12(%ebp), %eax
 2166 17ee 8D5004   		leal	4(%eax), %edx
 2167 17f1 8B4508   		movl	8(%ebp), %eax
 2168 17f4 69C08C01 		imull	$396, %eax, %eax
 2168      0000
 2169 17fa 05100100 		addl	$_cpuTaskCtrl+240, %eax
 2169      00
 2170 17ff 8B00     		movl	(%eax), %eax
 2171 1801 89542404 		movl	%edx, 4(%esp)
 2172 1805 890424   		movl	%eax, (%esp)
 2173 1808 E8000000 		call	_vListInsert
 2173      00
 2174              	L147:
 2175 180d C7442404 		movl	$0, 4(%esp)
 2175      00000000 
 2176 1815 8B4508   		movl	8(%ebp), %eax
 2177 1818 890424   		movl	%eax, (%esp)
 2178 181b E847FAFF 		call	_vTaskLockGive
 2178      FF
 2179 1820 C9       		leave
 2180              		.cfi_restore 5
 2181              		.cfi_def_cfa 4, 4
 2182 1821 C3       		ret
 2183              		.cfi_endproc
 2184              	LFE27:
 2185              		.globl	_xTaskRemoveFromEventList
 2186              		.def	_xTaskRemoveFromEventList;	.scl	2;	.type	32;	.endef
 2187              	_xTaskRemoveFromEventList:
 2188              	LFB28:
 2189              		.cfi_startproc
 2190 1822 55       		pushl	%ebp
 2191              		.cfi_def_cfa_offset 8
 2192              		.cfi_offset 5, -8
 2193 1823 89E5     		movl	%esp, %ebp
 2194              		.cfi_def_cfa_register 5
 2195 1825 53       		pushl	%ebx
 2196 1826 83EC24   		subl	$36, %esp
 2197              		.cfi_offset 3, -12
 2198 1829 8B450C   		movl	12(%ebp), %eax
 2199 182c 8B00     		movl	(%eax), %eax
 2200 182e 85C0     		testl	%eax, %eax
 2201 1830 740B     		je	L150
 2202 1832 8B450C   		movl	12(%ebp), %eax
 2203 1835 8B400C   		movl	12(%eax), %eax
 2204 1838 8B400C   		movl	12(%eax), %eax
 2205 183b EB05     		jmp	L151
 2206              	L150:
 2207 183d B8000000 		movl	$0, %eax
 2207      00
 2208              	L151:
 2209 1842 8945F0   		movl	%eax, -16(%ebp)
 2210 1845 8B45F0   		movl	-16(%ebp), %eax
 2211 1848 0FB64044 		movzbl	68(%eax), %eax
 2212 184c 0FB6C0   		movzbl	%al, %eax
 2213 184f 8B5510   		movl	16(%ebp), %edx
 2214 1852 89542404 		movl	%edx, 4(%esp)
 2215 1856 890424   		movl	%eax, (%esp)
 2216 1859 E8DCF9FF 		call	_vTaskLockTake
 2216      FF
 2217 185e 8B45F0   		movl	-16(%ebp), %eax
 2218 1861 83C018   		addl	$24, %eax
 2219 1864 890424   		movl	%eax, (%esp)
 2220 1867 E8000000 		call	_vListRemove
 2220      00
 2221 186c 8B45F0   		movl	-16(%ebp), %eax
 2222 186f 0FB64044 		movzbl	68(%eax), %eax
 2223 1873 0FB6D0   		movzbl	%al, %edx
 2224 1876 8B4508   		movl	8(%ebp), %eax
 2225 1879 8910     		movl	%edx, (%eax)
 2226 187b 8B45F0   		movl	-16(%ebp), %eax
 2227 187e 0FB64044 		movzbl	68(%eax), %eax
 2228 1882 0FB6C0   		movzbl	%al, %eax
 2229 1885 69C08C01 		imull	$396, %eax, %eax
 2229      0000
 2230 188b 05400100 		addl	$320, %eax
 2230      00
 2231 1890 05200000 		addl	$_cpuTaskCtrl, %eax
 2231      00
 2232 1895 83C00C   		addl	$12, %eax
 2233 1898 890424   		movl	%eax, (%esp)
 2234 189b E8000000 		call	_atomic32Get
 2234      00
 2235 18a0 85C0     		testl	%eax, %eax
 2236 18a2 0F859C00 		jne	L152
 2236      0000
 2237 18a8 8B45F0   		movl	-16(%ebp), %eax
 2238 18ab 83C004   		addl	$4, %eax
 2239 18ae 890424   		movl	%eax, (%esp)
 2240 18b1 E8000000 		call	_vListRemove
 2240      00
 2241 18b6 8B45F0   		movl	-16(%ebp), %eax
 2242 18b9 8B502C   		movl	44(%eax), %edx
 2243 18bc 8B45F0   		movl	-16(%ebp), %eax
 2244 18bf 0FB64044 		movzbl	68(%eax), %eax
 2245 18c3 0FB6C0   		movzbl	%al, %eax
 2246 18c6 69C08C01 		imull	$396, %eax, %eax
 2246      0000
 2247 18cc 05600100 		addl	$_cpuTaskCtrl+320, %eax
 2247      00
 2248 18d1 8B4004   		movl	4(%eax), %eax
 2249 18d4 39C2     		cmpl	%eax, %edx
 2250 18d6 7631     		jbe	L153
 2251 18d8 8B45F0   		movl	-16(%ebp), %eax
 2252 18db 8B402C   		movl	44(%eax), %eax
 2253 18de 8B55F0   		movl	-16(%ebp), %edx
 2254 18e1 0FB65244 		movzbl	68(%edx), %edx
 2255 18e5 0FB6D2   		movzbl	%dl, %edx
 2256 18e8 69D28C01 		imull	$396, %edx, %edx
 2256      0000
 2257 18ee 81C24001 		addl	$320, %edx
 2257      0000
 2258 18f4 81C22000 		addl	$_cpuTaskCtrl, %edx
 2258      0000
 2259 18fa 83C204   		addl	$4, %edx
 2260 18fd 89442404 		movl	%eax, 4(%esp)
 2261 1901 891424   		movl	%edx, (%esp)
 2262 1904 E8000000 		call	_atomic32Set
 2262      00
 2263              	L153:
 2264 1909 8B45F0   		movl	-16(%ebp), %eax
 2265 190c 8D4804   		leal	4(%eax), %ecx
 2266 190f 8B45F0   		movl	-16(%ebp), %eax
 2267 1912 0FB64044 		movzbl	68(%eax), %eax
 2268 1916 0FB6D8   		movzbl	%al, %ebx
 2269 1919 8B45F0   		movl	-16(%ebp), %eax
 2270 191c 8B502C   		movl	44(%eax), %edx
 2271 191f 89D0     		movl	%edx, %eax
 2272 1921 C1E002   		sall	$2, %eax
 2273 1924 01D0     		addl	%edx, %eax
 2274 1926 C1E002   		sall	$2, %eax
 2275 1929 69D38C01 		imull	$396, %ebx, %edx
 2275      0000
 2276 192f 01D0     		addl	%edx, %eax
 2277 1931 05200000 		addl	$_cpuTaskCtrl, %eax
 2277      00
 2278 1936 894C2404 		movl	%ecx, 4(%esp)
 2279 193a 890424   		movl	%eax, (%esp)
 2280 193d E8000000 		call	_vListInsertEnd
 2280      00
 2281 1942 EB2F     		jmp	L154
 2282              	L152:
 2283 1944 8B45F0   		movl	-16(%ebp), %eax
 2284 1947 8D5018   		leal	24(%eax), %edx
 2285 194a 8B45F0   		movl	-16(%ebp), %eax
 2286 194d 0FB64044 		movzbl	68(%eax), %eax
 2287 1951 0FB6C0   		movzbl	%al, %eax
 2288 1954 69C08C01 		imull	$396, %eax, %eax
 2288      0000
 2289 195a 05F00000 		addl	$240, %eax
 2289      00
 2290 195f 05200000 		addl	$_cpuTaskCtrl, %eax
 2290      00
 2291 1964 83C008   		addl	$8, %eax
 2292 1967 89542404 		movl	%edx, 4(%esp)
 2293 196b 890424   		movl	%eax, (%esp)
 2294 196e E8000000 		call	_vListInsertEnd
 2294      00
 2295              	L154:
 2296 1973 8B45F0   		movl	-16(%ebp), %eax
 2297 1976 8B502C   		movl	44(%eax), %edx
 2298 1979 8B45F0   		movl	-16(%ebp), %eax
 2299 197c 0FB64044 		movzbl	68(%eax), %eax
 2300 1980 0FB6C0   		movzbl	%al, %eax
 2301 1983 8B048500 		movl	_pxCurrentTCB(,%eax,4), %eax
 2301      000000
 2302 198a 8B402C   		movl	44(%eax), %eax
 2303 198d 39C2     		cmpl	%eax, %edx
 2304 198f 7209     		jb	L155
 2305 1991 C745F401 		movl	$1, -12(%ebp)
 2305      000000
 2306 1998 EB07     		jmp	L156
 2307              	L155:
 2308 199a C745F400 		movl	$0, -12(%ebp)
 2308      000000
 2309              	L156:
 2310 19a1 8B45F0   		movl	-16(%ebp), %eax
 2311 19a4 0FB64044 		movzbl	68(%eax), %eax
 2312 19a8 0FB6C0   		movzbl	%al, %eax
 2313 19ab 8B5510   		movl	16(%ebp), %edx
 2314 19ae 89542404 		movl	%edx, 4(%esp)
 2315 19b2 890424   		movl	%eax, (%esp)
 2316 19b5 E8ADF8FF 		call	_vTaskLockGive
 2316      FF
 2317 19ba 8B45F4   		movl	-12(%ebp), %eax
 2318 19bd 83C424   		addl	$36, %esp
 2319 19c0 5B       		popl	%ebx
 2320              		.cfi_restore 3
 2321 19c1 5D       		popl	%ebp
 2322              		.cfi_restore 5
 2323              		.cfi_def_cfa 4, 4
 2324 19c2 C3       		ret
 2325              		.cfi_endproc
 2326              	LFE28:
 2327              		.globl	_vTaskSetTimeOutState
 2328              		.def	_vTaskSetTimeOutState;	.scl	2;	.type	32;	.endef
 2329              	_vTaskSetTimeOutState:
 2330              	LFB29:
 2331              		.cfi_startproc
 2332 19c3 55       		pushl	%ebp
 2333              		.cfi_def_cfa_offset 8
 2334              		.cfi_offset 5, -8
 2335 19c4 89E5     		movl	%esp, %ebp
 2336              		.cfi_def_cfa_register 5
 2337 19c6 83EC18   		subl	$24, %esp
 2338 19c9 8B4508   		movl	8(%ebp), %eax
 2339 19cc 69C08C01 		imull	$396, %eax, %eax
 2339      0000
 2340 19d2 05500100 		addl	$336, %eax
 2340      00
 2341 19d7 05200000 		addl	$_cpuTaskCtrl, %eax
 2341      00
 2342 19dc 83C00C   		addl	$12, %eax
 2343 19df 890424   		movl	%eax, (%esp)
 2344 19e2 E8000000 		call	_atomic32Get
 2344      00
 2345 19e7 89C2     		movl	%eax, %edx
 2346 19e9 8B450C   		movl	12(%ebp), %eax
 2347 19ec 8910     		movl	%edx, (%eax)
 2348 19ee 8B4508   		movl	8(%ebp), %eax
 2349 19f1 69C08C01 		imull	$396, %eax, %eax
 2349      0000
 2350 19f7 05300100 		addl	$304, %eax
 2350      00
 2351 19fc 05200000 		addl	$_cpuTaskCtrl, %eax
 2351      00
 2352 1a01 83C00C   		addl	$12, %eax
 2353 1a04 890424   		movl	%eax, (%esp)
 2354 1a07 E8000000 		call	_atomic32Get
 2354      00
 2355 1a0c 8B550C   		movl	12(%ebp), %edx
 2356 1a0f 894204   		movl	%eax, 4(%edx)
 2357 1a12 C9       		leave
 2358              		.cfi_restore 5
 2359              		.cfi_def_cfa 4, 4
 2360 1a13 C3       		ret
 2361              		.cfi_endproc
 2362              	LFE29:
 2363              		.globl	_xTaskCheckForTimeOut
 2364              		.def	_xTaskCheckForTimeOut;	.scl	2;	.type	32;	.endef
 2365              	_xTaskCheckForTimeOut:
 2366              	LFB30:
 2367              		.cfi_startproc
 2368 1a14 55       		pushl	%ebp
 2369              		.cfi_def_cfa_offset 8
 2370              		.cfi_offset 5, -8
 2371 1a15 89E5     		movl	%esp, %ebp
 2372              		.cfi_def_cfa_register 5
 2373 1a17 53       		pushl	%ebx
 2374 1a18 83EC24   		subl	$36, %esp
 2375              		.cfi_offset 3, -12
 2376 1a1b C7442404 		movl	$0, 4(%esp)
 2376      00000000 
 2377 1a23 8B4508   		movl	8(%ebp), %eax
 2378 1a26 890424   		movl	%eax, (%esp)
 2379 1a29 E80CF8FF 		call	_vTaskLockTake
 2379      FF
 2380 1a2e 8B4510   		movl	16(%ebp), %eax
 2381 1a31 8B00     		movl	(%eax), %eax
 2382 1a33 83F8FF   		cmpl	$-1, %eax
 2383 1a36 750C     		jne	L160
 2384 1a38 C745F400 		movl	$0, -12(%ebp)
 2384      000000
 2385 1a3f E9AB0000 		jmp	L161
 2385      00
 2386              	L160:
 2387 1a44 8B4508   		movl	8(%ebp), %eax
 2388 1a47 69C08C01 		imull	$396, %eax, %eax
 2388      0000
 2389 1a4d 05700100 		addl	$_cpuTaskCtrl+336, %eax
 2389      00
 2390 1a52 8B500C   		movl	12(%eax), %edx
 2391 1a55 8B450C   		movl	12(%ebp), %eax
 2392 1a58 8B00     		movl	(%eax), %eax
 2393 1a5a 39C2     		cmpl	%eax, %edx
 2394 1a5c 7424     		je	L162
 2395 1a5e 8B4508   		movl	8(%ebp), %eax
 2396 1a61 69C08C01 		imull	$396, %eax, %eax
 2396      0000
 2397 1a67 05500100 		addl	$_cpuTaskCtrl+304, %eax
 2397      00
 2398 1a6c 8B500C   		movl	12(%eax), %edx
 2399 1a6f 8B450C   		movl	12(%ebp), %eax
 2400 1a72 8B4004   		movl	4(%eax), %eax
 2401 1a75 39C2     		cmpl	%eax, %edx
 2402 1a77 7209     		jb	L162
 2403 1a79 C745F401 		movl	$1, -12(%ebp)
 2403      000000
 2404 1a80 EB6D     		jmp	L161
 2405              	L162:
 2406 1a82 8B4508   		movl	8(%ebp), %eax
 2407 1a85 69C08C01 		imull	$396, %eax, %eax
 2407      0000
 2408 1a8b 05500100 		addl	$_cpuTaskCtrl+304, %eax
 2408      00
 2409 1a90 8B500C   		movl	12(%eax), %edx
 2410 1a93 8B450C   		movl	12(%ebp), %eax
 2411 1a96 8B4004   		movl	4(%eax), %eax
 2412 1a99 29C2     		subl	%eax, %edx
 2413 1a9b 8B4510   		movl	16(%ebp), %eax
 2414 1a9e 8B00     		movl	(%eax), %eax
 2415 1aa0 39C2     		cmpl	%eax, %edx
 2416 1aa2 7344     		jae	L163
 2417 1aa4 8B4510   		movl	16(%ebp), %eax
 2418 1aa7 8B10     		movl	(%eax), %edx
 2419 1aa9 8B450C   		movl	12(%ebp), %eax
 2420 1aac 8B4804   		movl	4(%eax), %ecx
 2421 1aaf 8B4508   		movl	8(%ebp), %eax
 2422 1ab2 69C08C01 		imull	$396, %eax, %eax
 2422      0000
 2423 1ab8 05500100 		addl	$_cpuTaskCtrl+304, %eax
 2423      00
 2424 1abd 8B400C   		movl	12(%eax), %eax
 2425 1ac0 89CB     		movl	%ecx, %ebx
 2426 1ac2 29C3     		subl	%eax, %ebx
 2427 1ac4 89D8     		movl	%ebx, %eax
 2428 1ac6 01C2     		addl	%eax, %edx
 2429 1ac8 8B4510   		movl	16(%ebp), %eax
 2430 1acb 8910     		movl	%edx, (%eax)
 2431 1acd 8B450C   		movl	12(%ebp), %eax
 2432 1ad0 89442404 		movl	%eax, 4(%esp)
 2433 1ad4 8B4508   		movl	8(%ebp), %eax
 2434 1ad7 890424   		movl	%eax, (%esp)
 2435 1ada E8E4FEFF 		call	_vTaskSetTimeOutState
 2435      FF
 2436 1adf C745F400 		movl	$0, -12(%ebp)
 2436      000000
 2437 1ae6 EB07     		jmp	L161
 2438              	L163:
 2439 1ae8 C745F401 		movl	$1, -12(%ebp)
 2439      000000
 2440              	L161:
 2441 1aef C7442404 		movl	$0, 4(%esp)
 2441      00000000 
 2442 1af7 8B4508   		movl	8(%ebp), %eax
 2443 1afa 890424   		movl	%eax, (%esp)
 2444 1afd E865F7FF 		call	_vTaskLockGive
 2444      FF
 2445 1b02 8B45F4   		movl	-12(%ebp), %eax
 2446 1b05 83C424   		addl	$36, %esp
 2447 1b08 5B       		popl	%ebx
 2448              		.cfi_restore 3
 2449 1b09 5D       		popl	%ebp
 2450              		.cfi_restore 5
 2451              		.cfi_def_cfa 4, 4
 2452 1b0a C3       		ret
 2453              		.cfi_endproc
 2454              	LFE30:
 2455              		.globl	_vTaskMissedYield
 2456              		.def	_vTaskMissedYield;	.scl	2;	.type	32;	.endef
 2457              	_vTaskMissedYield:
 2458              	LFB31:
 2459              		.cfi_startproc
 2460 1b0b 55       		pushl	%ebp
 2461              		.cfi_def_cfa_offset 8
 2462              		.cfi_offset 5, -8
 2463 1b0c 89E5     		movl	%esp, %ebp
 2464              		.cfi_def_cfa_register 5
 2465 1b0e 83EC18   		subl	$24, %esp
 2466 1b11 8B4508   		movl	8(%ebp), %eax
 2467 1b14 69C08C01 		imull	$396, %eax, %eax
 2467      0000
 2468 1b1a 05500100 		addl	$336, %eax
 2468      00
 2469 1b1f 05200000 		addl	$_cpuTaskCtrl, %eax
 2469      00
 2470 1b24 83C008   		addl	$8, %eax
 2471 1b27 C7442404 		movl	$1, 4(%esp)
 2471      01000000 
 2472 1b2f 890424   		movl	%eax, (%esp)
 2473 1b32 E8000000 		call	_atomic32Set
 2473      00
 2474 1b37 C9       		leave
 2475              		.cfi_restore 5
 2476              		.cfi_def_cfa 4, 4
 2477 1b38 C3       		ret
 2478              		.cfi_endproc
 2479              	LFE31:
 2480              		.def	_prvIdleTask;	.scl	3;	.type	32;	.endef
 2481              	_prvIdleTask:
 2482              	LFB32:
 2483              		.cfi_startproc
 2484 1b39 55       		pushl	%ebp
 2485              		.cfi_def_cfa_offset 8
 2486              		.cfi_offset 5, -8
 2487 1b3a 89E5     		movl	%esp, %ebp
 2488              		.cfi_def_cfa_register 5
 2489 1b3c 83EC28   		subl	$40, %esp
 2490 1b3f E8000000 		call	_sPortGetCurrentCPU
 2490      00
 2491 1b44 8945F4   		movl	%eax, -12(%ebp)
 2492 1b47 EB01     		jmp	L168
 2493              	L169:
 2494 1b49 90       		nop
 2495              	L168:
 2496 1b4a 8B45F4   		movl	-12(%ebp), %eax
 2497 1b4d C1E002   		sall	$2, %eax
 2498 1b50 05000000 		addl	$_idleCount, %eax
 2498      00
 2499 1b55 890424   		movl	%eax, (%esp)
 2500 1b58 E8000000 		call	_atomic32Inc
 2500      00
 2501 1b5d 8B45F4   		movl	-12(%ebp), %eax
 2502 1b60 890424   		movl	%eax, (%esp)
 2503 1b63 E8D50100 		call	_prvCheckTasksWaitingTermination
 2503      00
 2504 1b68 8B45F4   		movl	-12(%ebp), %eax
 2505 1b6b 69C08C01 		imull	$396, %eax, %eax
 2505      0000
 2506 1b71 05200000 		addl	$_cpuTaskCtrl, %eax
 2506      00
 2507 1b76 8B00     		movl	(%eax), %eax
 2508 1b78 83F801   		cmpl	$1, %eax
 2509 1b7b 76CC     		jbe	L169
 2510 1b7d 8B45F4   		movl	-12(%ebp), %eax
 2511 1b80 890424   		movl	%eax, (%esp)
 2512 1b83 E8000000 		call	_vPortYieldCPU
 2512      00
 2513 1b88 EBBF     		jmp	L169
 2514              		.cfi_endproc
 2515              	LFE32:
 2516              		.def	_prvInitialiseTCBVariables;	.scl	3;	.type	32;	.endef
 2517              	_prvInitialiseTCBVariables:
 2518              	LFB33:
 2519              		.cfi_startproc
 2520 1b8a 55       		pushl	%ebp
 2521              		.cfi_def_cfa_offset 8
 2522              		.cfi_offset 5, -8
 2523 1b8b 89E5     		movl	%esp, %ebp
 2524              		.cfi_def_cfa_register 5
 2525 1b8d 83EC28   		subl	$40, %esp
 2526 1b90 8B4518   		movl	24(%ebp), %eax
 2527 1b93 668945F4 		movw	%ax, -12(%ebp)
 2528 1b97 8B4508   		movl	8(%ebp), %eax
 2529 1b9a 8D5034   		leal	52(%eax), %edx
 2530 1b9d C7442408 		movl	$16, 8(%esp)
 2530      10000000 
 2531 1ba5 8B450C   		movl	12(%ebp), %eax
 2532 1ba8 89442404 		movl	%eax, 4(%esp)
 2533 1bac 891424   		movl	%edx, (%esp)
 2534 1baf E8000000 		call	_strncpy
 2534      00
 2535 1bb4 8B4508   		movl	8(%ebp), %eax
 2536 1bb7 C6404300 		movb	$0, 67(%eax)
 2537 1bbb 837D1009 		cmpl	$9, 16(%ebp)
 2538 1bbf 7607     		jbe	L171
 2539 1bc1 C7451009 		movl	$9, 16(%ebp)
 2539      000000
 2540              	L171:
 2541 1bc8 8B4508   		movl	8(%ebp), %eax
 2542 1bcb 8B5510   		movl	16(%ebp), %edx
 2543 1bce 89502C   		movl	%edx, 44(%eax)
 2544 1bd1 8B4508   		movl	8(%ebp), %eax
 2545 1bd4 8B5510   		movl	16(%ebp), %edx
 2546 1bd7 89504C   		movl	%edx, 76(%eax)
 2547 1bda 8B4508   		movl	8(%ebp), %eax
 2548 1bdd 83C004   		addl	$4, %eax
 2549 1be0 890424   		movl	%eax, (%esp)
 2550 1be3 E8000000 		call	_vListInitialiseItem
 2550      00
 2551 1be8 8B4508   		movl	8(%ebp), %eax
 2552 1beb 83C018   		addl	$24, %eax
 2553 1bee 890424   		movl	%eax, (%esp)
 2554 1bf1 E8000000 		call	_vListInitialiseItem
 2554      00
 2555 1bf6 8B4508   		movl	8(%ebp), %eax
 2556 1bf9 8B5508   		movl	8(%ebp), %edx
 2557 1bfc 895010   		movl	%edx, 16(%eax)
 2558 1bff B80A0000 		movl	$10, %eax
 2558      00
 2559 1c04 89C2     		movl	%eax, %edx
 2560 1c06 2B5510   		subl	16(%ebp), %edx
 2561 1c09 8B4508   		movl	8(%ebp), %eax
 2562 1c0c 895018   		movl	%edx, 24(%eax)
 2563 1c0f 8B4508   		movl	8(%ebp), %eax
 2564 1c12 8B5508   		movl	8(%ebp), %edx
 2565 1c15 895024   		movl	%edx, 36(%eax)
 2566 1c18 C9       		leave
 2567              		.cfi_restore 5
 2568              		.cfi_def_cfa 4, 4
 2569 1c19 C3       		ret
 2570              		.cfi_endproc
 2571              	LFE33:
 2572              		.def	_prvInitialiseTaskLists;	.scl	3;	.type	32;	.endef
 2573              	_prvInitialiseTaskLists:
 2574              	LFB34:
 2575              		.cfi_startproc
 2576 1c1a 55       		pushl	%ebp
 2577              		.cfi_def_cfa_offset 8
 2578              		.cfi_offset 5, -8
 2579 1c1b 89E5     		movl	%esp, %ebp
 2580              		.cfi_def_cfa_register 5
 2581 1c1d 83EC28   		subl	$40, %esp
 2582 1c20 C745F400 		movl	$0, -12(%ebp)
 2582      000000
 2583 1c27 EB29     		jmp	L173
 2584              	L174:
 2585 1c29 8B55F4   		movl	-12(%ebp), %edx
 2586 1c2c 89D0     		movl	%edx, %eax
 2587 1c2e C1E002   		sall	$2, %eax
 2588 1c31 01D0     		addl	%edx, %eax
 2589 1c33 C1E002   		sall	$2, %eax
 2590 1c36 8B5508   		movl	8(%ebp), %edx
 2591 1c39 69D28C01 		imull	$396, %edx, %edx
 2591      0000
 2592 1c3f 01D0     		addl	%edx, %eax
 2593 1c41 05200000 		addl	$_cpuTaskCtrl, %eax
 2593      00
 2594 1c46 890424   		movl	%eax, (%esp)
 2595 1c49 E8000000 		call	_vListInitialise
 2595      00
 2596 1c4e 8345F401 		addl	$1, -12(%ebp)
 2597              	L173:
 2598 1c52 837DF409 		cmpl	$9, -12(%ebp)
 2599 1c56 76D1     		jbe	L174
 2600 1c58 8B4508   		movl	8(%ebp), %eax
 2601 1c5b 69C08C01 		imull	$396, %eax, %eax
 2601      0000
 2602 1c61 05C00000 		addl	$192, %eax
 2602      00
 2603 1c66 05200000 		addl	$_cpuTaskCtrl, %eax
 2603      00
 2604 1c6b 83C008   		addl	$8, %eax
 2605 1c6e 890424   		movl	%eax, (%esp)
 2606 1c71 E8000000 		call	_vListInitialise
 2606      00
 2607 1c76 8B4508   		movl	8(%ebp), %eax
 2608 1c79 69C08C01 		imull	$396, %eax, %eax
 2608      0000
 2609 1c7f 05D00000 		addl	$208, %eax
 2609      00
 2610 1c84 05200000 		addl	$_cpuTaskCtrl, %eax
 2610      00
 2611 1c89 83C00C   		addl	$12, %eax
 2612 1c8c 890424   		movl	%eax, (%esp)
 2613 1c8f E8000000 		call	_vListInitialise
 2613      00
 2614 1c94 8B4508   		movl	8(%ebp), %eax
 2615 1c97 69C08C01 		imull	$396, %eax, %eax
 2615      0000
 2616 1c9d 05F00000 		addl	$240, %eax
 2616      00
 2617 1ca2 05200000 		addl	$_cpuTaskCtrl, %eax
 2617      00
 2618 1ca7 83C008   		addl	$8, %eax
 2619 1caa 890424   		movl	%eax, (%esp)
 2620 1cad E8000000 		call	_vListInitialise
 2620      00
 2621 1cb2 8B4508   		movl	8(%ebp), %eax
 2622 1cb5 69C08C01 		imull	$396, %eax, %eax
 2622      0000
 2623 1cbb 05000100 		addl	$256, %eax
 2623      00
 2624 1cc0 05200000 		addl	$_cpuTaskCtrl, %eax
 2624      00
 2625 1cc5 83C00C   		addl	$12, %eax
 2626 1cc8 890424   		movl	%eax, (%esp)
 2627 1ccb E8000000 		call	_vListInitialise
 2627      00
 2628 1cd0 8B4508   		movl	8(%ebp), %eax
 2629 1cd3 69C08C01 		imull	$396, %eax, %eax
 2629      0000
 2630 1cd9 05200100 		addl	$288, %eax
 2630      00
 2631 1cde 05200000 		addl	$_cpuTaskCtrl, %eax
 2631      00
 2632 1ce3 83C004   		addl	$4, %eax
 2633 1ce6 890424   		movl	%eax, (%esp)
 2634 1ce9 E8000000 		call	_vListInitialise
 2634      00
 2635 1cee 8B4508   		movl	8(%ebp), %eax
 2636 1cf1 69C08C01 		imull	$396, %eax, %eax
 2636      0000
 2637 1cf7 05C00000 		addl	$192, %eax
 2637      00
 2638 1cfc 05200000 		addl	$_cpuTaskCtrl, %eax
 2638      00
 2639 1d01 8D5008   		leal	8(%eax), %edx
 2640 1d04 8B4508   		movl	8(%ebp), %eax
 2641 1d07 69C08C01 		imull	$396, %eax, %eax
 2641      0000
 2642 1d0d 05100100 		addl	$_cpuTaskCtrl+240, %eax
 2642      00
 2643 1d12 8910     		movl	%edx, (%eax)
 2644 1d14 8B4508   		movl	8(%ebp), %eax
 2645 1d17 69C08C01 		imull	$396, %eax, %eax
 2645      0000
 2646 1d1d 05D00000 		addl	$208, %eax
 2646      00
 2647 1d22 05200000 		addl	$_cpuTaskCtrl, %eax
 2647      00
 2648 1d27 8D500C   		leal	12(%eax), %edx
 2649 1d2a 8B4508   		movl	8(%ebp), %eax
 2650 1d2d 69C08C01 		imull	$396, %eax, %eax
 2650      0000
 2651 1d33 05100100 		addl	$_cpuTaskCtrl+240, %eax
 2651      00
 2652 1d38 895004   		movl	%edx, 4(%eax)
 2653 1d3b C9       		leave
 2654              		.cfi_restore 5
 2655              		.cfi_def_cfa 4, 4
 2656 1d3c C3       		ret
 2657              		.cfi_endproc
 2658              	LFE34:
 2659              		.def	_prvCheckTasksWaitingTermination;	.scl	3;	.type	32;	.endef
 2660              	_prvCheckTasksWaitingTermination:
 2661              	LFB35:
 2662              		.cfi_startproc
 2663 1d3d 55       		pushl	%ebp
 2664              		.cfi_def_cfa_offset 8
 2665              		.cfi_offset 5, -8
 2666 1d3e 89E5     		movl	%esp, %ebp
 2667              		.cfi_def_cfa_register 5
 2668 1d40 83EC28   		subl	$40, %esp
 2669 1d43 C745F400 		movl	$0, -12(%ebp)
 2669      000000
 2670 1d4a 8B4508   		movl	8(%ebp), %eax
 2671 1d4d 69C08C01 		imull	$396, %eax, %eax
 2671      0000
 2672 1d53 05200100 		addl	$288, %eax
 2672      00
 2673 1d58 05200000 		addl	$_cpuTaskCtrl, %eax
 2673      00
 2674 1d5d 890424   		movl	%eax, (%esp)
 2675 1d60 E8000000 		call	_atomic32Get
 2675      00
 2676 1d65 85C0     		testl	%eax, %eax
 2677 1d67 0F84F200 		je	L175
 2677      0000
 2678 1d6d C7442404 		movl	$0, 4(%esp)
 2678      00000000 
 2679 1d75 8B4508   		movl	8(%ebp), %eax
 2680 1d78 890424   		movl	%eax, (%esp)
 2681 1d7b E8BAF4FF 		call	_vTaskLockTake
 2681      FF
 2682 1d80 8B4508   		movl	8(%ebp), %eax
 2683 1d83 69C08C01 		imull	$396, %eax, %eax
 2683      0000
 2684 1d89 05200100 		addl	$_cpuTaskCtrl+256, %eax
 2684      00
 2685 1d8e 8B400C   		movl	12(%eax), %eax
 2686 1d91 85C0     		testl	%eax, %eax
 2687 1d93 0F94C0   		sete	%al
 2688 1d96 0FB6C0   		movzbl	%al, %eax
 2689 1d99 8945F0   		movl	%eax, -16(%ebp)
 2690 1d9c 837DF000 		cmpl	$0, -16(%ebp)
 2691 1da0 0F859500 		jne	L177
 2691      0000
 2692 1da6 8B4508   		movl	8(%ebp), %eax
 2693 1da9 69C08C01 		imull	$396, %eax, %eax
 2693      0000
 2694 1daf 05000100 		addl	$256, %eax
 2694      00
 2695 1db4 05200000 		addl	$_cpuTaskCtrl, %eax
 2695      00
 2696 1db9 83C00C   		addl	$12, %eax
 2697 1dbc 8B00     		movl	(%eax), %eax
 2698 1dbe 85C0     		testl	%eax, %eax
 2699 1dc0 741E     		je	L178
 2700 1dc2 8B4508   		movl	8(%ebp), %eax
 2701 1dc5 69C08C01 		imull	$396, %eax, %eax
 2701      0000
 2702 1dcb 05000100 		addl	$256, %eax
 2702      00
 2703 1dd0 05200000 		addl	$_cpuTaskCtrl, %eax
 2703      00
 2704 1dd5 83C00C   		addl	$12, %eax
 2705 1dd8 8B400C   		movl	12(%eax), %eax
 2706 1ddb 8B400C   		movl	12(%eax), %eax
 2707 1dde EB05     		jmp	L179
 2708              	L178:
 2709 1de0 B8000000 		movl	$0, %eax
 2709      00
 2710              	L179:
 2711 1de5 8945F4   		movl	%eax, -12(%ebp)
 2712 1de8 8B45F4   		movl	-12(%ebp), %eax
 2713 1deb 83C004   		addl	$4, %eax
 2714 1dee 890424   		movl	%eax, (%esp)
 2715 1df1 E8000000 		call	_vListRemove
 2715      00
 2716 1df6 8B4508   		movl	8(%ebp), %eax
 2717 1df9 69C08C01 		imull	$396, %eax, %eax
 2717      0000
 2718 1dff 05300100 		addl	$304, %eax
 2718      00
 2719 1e04 05200000 		addl	$_cpuTaskCtrl, %eax
 2719      00
 2720 1e09 83C008   		addl	$8, %eax
 2721 1e0c 890424   		movl	%eax, (%esp)
 2722 1e0f E8000000 		call	_atomic32Dec
 2722      00
 2723 1e14 8B4508   		movl	8(%ebp), %eax
 2724 1e17 69C08C01 		imull	$396, %eax, %eax
 2724      0000
 2725 1e1d 05200100 		addl	$288, %eax
 2725      00
 2726 1e22 05200000 		addl	$_cpuTaskCtrl, %eax
 2726      00
 2727 1e27 890424   		movl	%eax, (%esp)
 2728 1e2a E8000000 		call	_atomic32Dec
 2728      00
 2729 1e2f C7042400 		movl	$_uxTotalTaskNumber, (%esp)
 2729      000000
 2730 1e36 E8000000 		call	_atomic32Dec
 2730      00
 2731              	L177:
 2732 1e3b C7442404 		movl	$0, 4(%esp)
 2732      00000000 
 2733 1e43 8B4508   		movl	8(%ebp), %eax
 2734 1e46 890424   		movl	%eax, (%esp)
 2735 1e49 E819F4FF 		call	_vTaskLockGive
 2735      FF
 2736 1e4e 837DF400 		cmpl	$0, -12(%ebp)
 2737 1e52 740B     		je	L175
 2738 1e54 8B45F4   		movl	-12(%ebp), %eax
 2739 1e57 890424   		movl	%eax, (%esp)
 2740 1e5a E8E70100 		call	_prvDeleteTCB
 2740      00
 2741              	L175:
 2742 1e5f C9       		leave
 2743              		.cfi_restore 5
 2744              		.cfi_def_cfa 4, 4
 2745 1e60 C3       		ret
 2746              		.cfi_endproc
 2747              	LFE35:
 2748              		.def	_prvAllocateTCBAndStack;	.scl	3;	.type	32;	.endef
 2749              	_prvAllocateTCBAndStack:
 2750              	LFB36:
 2751              		.cfi_startproc
 2752 1e61 55       		pushl	%ebp
 2753              		.cfi_def_cfa_offset 8
 2754              		.cfi_offset 5, -8
 2755 1e62 89E5     		movl	%esp, %ebp
 2756              		.cfi_def_cfa_register 5
 2757 1e64 83EC38   		subl	$56, %esp
 2758 1e67 8B4508   		movl	8(%ebp), %eax
 2759 1e6a 668945E4 		movw	%ax, -28(%ebp)
 2760 1e6e C7042450 		movl	$80, (%esp)
 2760      000000
 2761 1e75 E8000000 		call	_pvPortMalloc
 2761      00
 2762 1e7a 8945F4   		movl	%eax, -12(%ebp)
 2763 1e7d 837DF400 		cmpl	$0, -12(%ebp)
 2764 1e81 7463     		je	L181
 2765 1e83 837D0C00 		cmpl	$0, 12(%ebp)
 2766 1e87 7511     		jne	L182
 2767 1e89 0FB745E4 		movzwl	-28(%ebp), %eax
 2768 1e8d C1E002   		sall	$2, %eax
 2769 1e90 890424   		movl	%eax, (%esp)
 2770 1e93 E8000000 		call	_pvPortMalloc
 2770      00
 2771 1e98 EB03     		jmp	L183
 2772              	L182:
 2773 1e9a 8B450C   		movl	12(%ebp), %eax
 2774              	L183:
 2775 1e9d 8B55F4   		movl	-12(%ebp), %edx
 2776 1ea0 894230   		movl	%eax, 48(%edx)
 2777 1ea3 8B45F4   		movl	-12(%ebp), %eax
 2778 1ea6 8B4030   		movl	48(%eax), %eax
 2779 1ea9 85C0     		testl	%eax, %eax
 2780 1eab 7514     		jne	L184
 2781 1ead 8B45F4   		movl	-12(%ebp), %eax
 2782 1eb0 890424   		movl	%eax, (%esp)
 2783 1eb3 E8000000 		call	_vPortFree
 2783      00
 2784 1eb8 C745F400 		movl	$0, -12(%ebp)
 2784      000000
 2785 1ebf EB25     		jmp	L181
 2786              	L184:
 2787 1ec1 0FB745E4 		movzwl	-28(%ebp), %eax
 2788 1ec5 8D148500 		leal	0(,%eax,4), %edx
 2788      000000
 2789 1ecc 8B45F4   		movl	-12(%ebp), %eax
 2790 1ecf 8B4030   		movl	48(%eax), %eax
 2791 1ed2 89542408 		movl	%edx, 8(%esp)
 2792 1ed6 C7442404 		movl	$165, 4(%esp)
 2792      A5000000 
 2793 1ede 890424   		movl	%eax, (%esp)
 2794 1ee1 E8000000 		call	_memset
 2794      00
 2795              	L181:
 2796 1ee6 8B45F4   		movl	-12(%ebp), %eax
 2797 1ee9 C9       		leave
 2798              		.cfi_restore 5
 2799              		.cfi_def_cfa 4, 4
 2800 1eea C3       		ret
 2801              		.cfi_endproc
 2802              	LFE36:
 2803              		.section .rdata,"dr"
 2804              	LC3:
 2805 003e 252D3136 		.ascii "%-16s %u\11%c\11%u\11%5u\11%u\15\12\0"
 2805      73202575 
 2805      09256309 
 2805      25750925 
 2805      35750925 
 2806 0056 0000     		.text
 2807              		.def	_prvListTaskWithinSingleList;	.scl	3;	.type	32;	.endef
 2808              	_prvListTaskWithinSingleList:
 2809              	LFB37:
 2810              		.cfi_startproc
 2811 1eeb 55       		pushl	%ebp
 2812              		.cfi_def_cfa_offset 8
 2813              		.cfi_offset 5, -8
 2814 1eec 89E5     		movl	%esp, %ebp
 2815              		.cfi_def_cfa_register 5
 2816 1eee 56       		pushl	%esi
 2817 1eef 53       		pushl	%ebx
 2818 1ef0 83EC50   		subl	$80, %esp
 2819              		.cfi_offset 6, -12
 2820              		.cfi_offset 3, -16
 2821 1ef3 8B4510   		movl	16(%ebp), %eax
 2822 1ef6 8845D4   		movb	%al, -44(%ebp)
 2823 1ef9 8B4514   		movl	20(%ebp), %eax
 2824 1efc 8945C8   		movl	%eax, -56(%ebp)
 2825 1eff 8B4518   		movl	24(%ebp), %eax
 2826 1f02 8945CC   		movl	%eax, -52(%ebp)
 2827 1f05 8B450C   		movl	12(%ebp), %eax
 2828 1f08 8945F4   		movl	%eax, -12(%ebp)
 2829 1f0b 8B45F4   		movl	-12(%ebp), %eax
 2830 1f0e 8B4004   		movl	4(%eax), %eax
 2831 1f11 8B5004   		movl	4(%eax), %edx
 2832 1f14 8B45F4   		movl	-12(%ebp), %eax
 2833 1f17 895004   		movl	%edx, 4(%eax)
 2834 1f1a 8B45F4   		movl	-12(%ebp), %eax
 2835 1f1d 8B4004   		movl	4(%eax), %eax
 2836 1f20 8B55F4   		movl	-12(%ebp), %edx
 2837 1f23 83C208   		addl	$8, %edx
 2838 1f26 39D0     		cmpl	%edx, %eax
 2839 1f28 750F     		jne	L187
 2840 1f2a 8B45F4   		movl	-12(%ebp), %eax
 2841 1f2d 8B4004   		movl	4(%eax), %eax
 2842 1f30 8B5004   		movl	4(%eax), %edx
 2843 1f33 8B45F4   		movl	-12(%ebp), %eax
 2844 1f36 895004   		movl	%edx, 4(%eax)
 2845              	L187:
 2846 1f39 8B45F4   		movl	-12(%ebp), %eax
 2847 1f3c 8B4004   		movl	4(%eax), %eax
 2848 1f3f 8B400C   		movl	12(%eax), %eax
 2849 1f42 8945F0   		movl	%eax, -16(%ebp)
 2850              	L190:
 2851 1f45 8B450C   		movl	12(%ebp), %eax
 2852 1f48 8945EC   		movl	%eax, -20(%ebp)
 2853 1f4b 8B45EC   		movl	-20(%ebp), %eax
 2854 1f4e 8B4004   		movl	4(%eax), %eax
 2855 1f51 8B5004   		movl	4(%eax), %edx
 2856 1f54 8B45EC   		movl	-20(%ebp), %eax
 2857 1f57 895004   		movl	%edx, 4(%eax)
 2858 1f5a 8B45EC   		movl	-20(%ebp), %eax
 2859 1f5d 8B4004   		movl	4(%eax), %eax
 2860 1f60 8B55EC   		movl	-20(%ebp), %edx
 2861 1f63 83C208   		addl	$8, %edx
 2862 1f66 39D0     		cmpl	%edx, %eax
 2863 1f68 750F     		jne	L188
 2864 1f6a 8B45EC   		movl	-20(%ebp), %eax
 2865 1f6d 8B4004   		movl	4(%eax), %eax
 2866 1f70 8B5004   		movl	4(%eax), %edx
 2867 1f73 8B45EC   		movl	-20(%ebp), %eax
 2868 1f76 895004   		movl	%edx, 4(%eax)
 2869              	L188:
 2870 1f79 8B45EC   		movl	-20(%ebp), %eax
 2871 1f7c 8B4004   		movl	4(%eax), %eax
 2872 1f7f 8B400C   		movl	12(%eax), %eax
 2873 1f82 8945E8   		movl	%eax, -24(%ebp)
 2874 1f85 8B45E8   		movl	-24(%ebp), %eax
 2875 1f88 8B4030   		movl	48(%eax), %eax
 2876 1f8b 890424   		movl	%eax, (%esp)
 2877 1f8e E8920000 		call	_usTaskCheckFreeStackSpace
 2877      00
 2878 1f93 8945E4   		movl	%eax, -28(%ebp)
 2879 1f96 8B45C8   		movl	-56(%ebp), %eax
 2880 1f99 8B55CC   		movl	-52(%ebp), %edx
 2881 1f9c 09D0     		orl	%edx, %eax
 2882 1f9e 85C0     		testl	%eax, %eax
 2883 1fa0 740E     		je	L189
 2884 1fa2 C745C800 		movl	$0, -56(%ebp)
 2884      000000
 2885 1fa9 C745CC00 		movl	$0, -52(%ebp)
 2885      000000
 2886              	L189:
 2887 1fb0 8B45E8   		movl	-24(%ebp), %eax
 2888 1fb3 8B5848   		movl	72(%eax), %ebx
 2889 1fb6 8B45E8   		movl	-24(%ebp), %eax
 2890 1fb9 8B482C   		movl	44(%eax), %ecx
 2891 1fbc 0FBE55D4 		movsbl	-44(%ebp), %edx
 2892 1fc0 8B45E8   		movl	-24(%ebp), %eax
 2893 1fc3 0FB64044 		movzbl	68(%eax), %eax
 2894 1fc7 0FB6C0   		movzbl	%al, %eax
 2895 1fca 8B75E8   		movl	-24(%ebp), %esi
 2896 1fcd 83C634   		addl	$52, %esi
 2897 1fd0 895C241C 		movl	%ebx, 28(%esp)
 2898 1fd4 8B5DE4   		movl	-28(%ebp), %ebx
 2899 1fd7 895C2418 		movl	%ebx, 24(%esp)
 2900 1fdb 894C2414 		movl	%ecx, 20(%esp)
 2901 1fdf 89542410 		movl	%edx, 16(%esp)
 2902 1fe3 8944240C 		movl	%eax, 12(%esp)
 2903 1fe7 89742408 		movl	%esi, 8(%esp)
 2904 1feb C7442404 		movl	$LC3, 4(%esp)
 2904      3E000000 
 2905 1ff3 C7042460 		movl	$_pcStatusString, (%esp)
 2905      060000
 2906 1ffa E8000000 		call	_sprintf
 2906      00
 2907 1fff C7442404 		movl	$_pcStatusString, 4(%esp)
 2907      60060000 
 2908 2007 8B4508   		movl	8(%ebp), %eax
 2909 200a 890424   		movl	%eax, (%esp)
 2910 200d E8000000 		call	_strcat
 2910      00
 2911 2012 8B45E8   		movl	-24(%ebp), %eax
 2912 2015 3B45F0   		cmpl	-16(%ebp), %eax
 2913 2018 0F8527FF 		jne	L190
 2913      FFFF
 2914 201e 83C450   		addl	$80, %esp
 2915 2021 5B       		popl	%ebx
 2916              		.cfi_restore 3
 2917 2022 5E       		popl	%esi
 2918              		.cfi_restore 6
 2919 2023 5D       		popl	%ebp
 2920              		.cfi_restore 5
 2921              		.cfi_def_cfa 4, 4
 2922 2024 C3       		ret
 2923              		.cfi_endproc
 2924              	LFE37:
 2925              		.def	_usTaskCheckFreeStackSpace;	.scl	3;	.type	32;	.endef
 2926              	_usTaskCheckFreeStackSpace:
 2927              	LFB38:
 2928              		.cfi_startproc
 2929 2025 55       		pushl	%ebp
 2930              		.cfi_def_cfa_offset 8
 2931              		.cfi_offset 5, -8
 2932 2026 89E5     		movl	%esp, %ebp
 2933              		.cfi_def_cfa_register 5
 2934 2028 53       		pushl	%ebx
 2935              		.cfi_offset 3, -12
 2936 2029 BB000000 		movl	$0, %ebx
 2936      00
 2937 202e EB07     		jmp	L192
 2938              	L193:
 2939 2030 83450801 		addl	$1, 8(%ebp)
 2940 2034 83C301   		addl	$1, %ebx
 2941              	L192:
 2942 2037 8B4508   		movl	8(%ebp), %eax
 2943 203a 0FB600   		movzbl	(%eax), %eax
 2944 203d 3CA5     		cmpb	$-91, %al
 2945 203f 74EF     		je	L193
 2946 2041 89D8     		movl	%ebx, %eax
 2947 2043 5B       		popl	%ebx
 2948              		.cfi_restore 3
 2949 2044 5D       		popl	%ebp
 2950              		.cfi_restore 5
 2951              		.cfi_def_cfa 4, 4
 2952 2045 C3       		ret
 2953              		.cfi_endproc
 2954              	LFE38:
 2955              		.def	_prvDeleteTCB;	.scl	3;	.type	32;	.endef
 2956              	_prvDeleteTCB:
 2957              	LFB39:
 2958              		.cfi_startproc
 2959 2046 55       		pushl	%ebp
 2960              		.cfi_def_cfa_offset 8
 2961              		.cfi_offset 5, -8
 2962 2047 89E5     		movl	%esp, %ebp
 2963              		.cfi_def_cfa_register 5
 2964 2049 83EC18   		subl	$24, %esp
 2965 204c 8B4508   		movl	8(%ebp), %eax
 2966 204f 8B4030   		movl	48(%eax), %eax
 2967 2052 890424   		movl	%eax, (%esp)
 2968 2055 E8000000 		call	_vPortFree
 2968      00
 2969 205a 8B4508   		movl	8(%ebp), %eax
 2970 205d 890424   		movl	%eax, (%esp)
 2971 2060 E8000000 		call	_vPortFree
 2971      00
 2972 2065 C9       		leave
 2973              		.cfi_restore 5
 2974              		.cfi_def_cfa 4, 4
 2975 2066 C3       		ret
 2976              		.cfi_endproc
 2977              	LFE39:
 2978              		.globl	_xTaskGetCurrentTaskHandle
 2979              		.def	_xTaskGetCurrentTaskHandle;	.scl	2;	.type	32;	.endef
 2980              	_xTaskGetCurrentTaskHandle:
 2981              	LFB40:
 2982              		.cfi_startproc
 2983 2067 55       		pushl	%ebp
 2984              		.cfi_def_cfa_offset 8
 2985              		.cfi_offset 5, -8
 2986 2068 89E5     		movl	%esp, %ebp
 2987              		.cfi_def_cfa_register 5
 2988 206a 53       		pushl	%ebx
 2989 206b 83EC14   		subl	$20, %esp
 2990              		.cfi_offset 3, -12
 2991 206e E8000000 		call	_sPortGetCurrentCPU
 2991      00
 2992 2073 8945F4   		movl	%eax, -12(%ebp)
 2993              	/APP
 2994              	 # 2768 "../../Source/tasks.c" 1
 2995 2076 9CFA5B   		pushf; cli; popl %ebx; 
 2996              	 # 0 "" 2
 2997              	/NO_APP
 2998 2079 895DF0   		movl	%ebx, -16(%ebp)
 2999 207c 8B45F4   		movl	-12(%ebp), %eax
 3000 207f 8B048500 		movl	_pxCurrentTCB(,%eax,4), %eax
 3000      000000
 3001 2086 8945EC   		movl	%eax, -20(%ebp)
 3002              	/APP
 3003              	 # 2770 "../../Source/tasks.c" 1
 3004 2089 F745F000 		testl $0x200,-16(%ebp); jz 0f; sti; 0: 
 3004      02000074 
 3004      01FB
 3005              	 # 0 "" 2
 3006              	/NO_APP
 3007 2093 8B45EC   		movl	-20(%ebp), %eax
 3008 2096 83C414   		addl	$20, %esp
 3009 2099 5B       		popl	%ebx
 3010              		.cfi_restore 3
 3011 209a 5D       		popl	%ebp
 3012              		.cfi_restore 5
 3013              		.cfi_def_cfa 4, 4
 3014 209b C3       		ret
 3015              		.cfi_endproc
 3016              	LFE40:
 3017              		.globl	_vTaskPriorityInherit
 3018              		.def	_vTaskPriorityInherit;	.scl	2;	.type	32;	.endef
 3019              	_vTaskPriorityInherit:
 3020              	LFB41:
 3021              		.cfi_startproc
 3022 209c 55       		pushl	%ebp
 3023              		.cfi_def_cfa_offset 8
 3024              		.cfi_offset 5, -8
 3025 209d 89E5     		movl	%esp, %ebp
 3026              		.cfi_def_cfa_register 5
 3027 209f 83EC28   		subl	$40, %esp
 3028 20a2 8B4508   		movl	8(%ebp), %eax
 3029 20a5 8945F4   		movl	%eax, -12(%ebp)
 3030 20a8 837DF400 		cmpl	$0, -12(%ebp)
 3031 20ac 0F844101 		je	L198
 3031      0000
 3032 20b2 8B45F4   		movl	-12(%ebp), %eax
 3033 20b5 0FB64044 		movzbl	68(%eax), %eax
 3034 20b9 0FB6C0   		movzbl	%al, %eax
 3035 20bc 8945F0   		movl	%eax, -16(%ebp)
 3036 20bf 8B45F4   		movl	-12(%ebp), %eax
 3037 20c2 8B502C   		movl	44(%eax), %edx
 3038 20c5 8B45F0   		movl	-16(%ebp), %eax
 3039 20c8 8B048500 		movl	_pxCurrentTCB(,%eax,4), %eax
 3039      000000
 3040 20cf 8B402C   		movl	44(%eax), %eax
 3041 20d2 39C2     		cmpl	%eax, %edx
 3042 20d4 0F831901 		jae	L198
 3042      0000
 3043 20da 8B450C   		movl	12(%ebp), %eax
 3044 20dd 89442404 		movl	%eax, 4(%esp)
 3045 20e1 8B45F0   		movl	-16(%ebp), %eax
 3046 20e4 890424   		movl	%eax, (%esp)
 3047 20e7 E84EF1FF 		call	_vTaskLockTake
 3047      FF
 3048 20ec 8B45F0   		movl	-16(%ebp), %eax
 3049 20ef 8B048500 		movl	_pxCurrentTCB(,%eax,4), %eax
 3049      000000
 3050 20f6 8B402C   		movl	44(%eax), %eax
 3051 20f9 BA0A0000 		movl	$10, %edx
 3051      00
 3052 20fe 29C2     		subl	%eax, %edx
 3053 2100 8B45F4   		movl	-12(%ebp), %eax
 3054 2103 895018   		movl	%edx, 24(%eax)
 3055 2106 8B45F4   		movl	-12(%ebp), %eax
 3056 2109 8B4814   		movl	20(%eax), %ecx
 3057 210c 8B45F4   		movl	-12(%ebp), %eax
 3058 210f 8B502C   		movl	44(%eax), %edx
 3059 2112 89D0     		movl	%edx, %eax
 3060 2114 C1E002   		sall	$2, %eax
 3061 2117 01D0     		addl	%edx, %eax
 3062 2119 C1E002   		sall	$2, %eax
 3063 211c 8B55F0   		movl	-16(%ebp), %edx
 3064 211f 69D28C01 		imull	$396, %edx, %edx
 3064      0000
 3065 2125 01D0     		addl	%edx, %eax
 3066 2127 05200000 		addl	$_cpuTaskCtrl, %eax
 3066      00
 3067 212c 39C1     		cmpl	%eax, %ecx
 3068 212e 0F859A00 		jne	L200
 3068      0000
 3069 2134 8B45F4   		movl	-12(%ebp), %eax
 3070 2137 83C004   		addl	$4, %eax
 3071 213a 890424   		movl	%eax, (%esp)
 3072 213d E8000000 		call	_vListRemove
 3072      00
 3073 2142 8B45F0   		movl	-16(%ebp), %eax
 3074 2145 8B048500 		movl	_pxCurrentTCB(,%eax,4), %eax
 3074      000000
 3075 214c 8B502C   		movl	44(%eax), %edx
 3076 214f 8B45F4   		movl	-12(%ebp), %eax
 3077 2152 89502C   		movl	%edx, 44(%eax)
 3078 2155 8B45F4   		movl	-12(%ebp), %eax
 3079 2158 8B502C   		movl	44(%eax), %edx
 3080 215b 8B45F0   		movl	-16(%ebp), %eax
 3081 215e 69C08C01 		imull	$396, %eax, %eax
 3081      0000
 3082 2164 05600100 		addl	$_cpuTaskCtrl+320, %eax
 3082      00
 3083 2169 8B4004   		movl	4(%eax), %eax
 3084 216c 39C2     		cmpl	%eax, %edx
 3085 216e 762A     		jbe	L201
 3086 2170 8B45F4   		movl	-12(%ebp), %eax
 3087 2173 8B402C   		movl	44(%eax), %eax
 3088 2176 8B55F0   		movl	-16(%ebp), %edx
 3089 2179 69D28C01 		imull	$396, %edx, %edx
 3089      0000
 3090 217f 81C24001 		addl	$320, %edx
 3090      0000
 3091 2185 81C22000 		addl	$_cpuTaskCtrl, %edx
 3091      0000
 3092 218b 83C204   		addl	$4, %edx
 3093 218e 89442404 		movl	%eax, 4(%esp)
 3094 2192 891424   		movl	%edx, (%esp)
 3095 2195 E8000000 		call	_atomic32Set
 3095      00
 3096              	L201:
 3097 219a 8B45F4   		movl	-12(%ebp), %eax
 3098 219d 8D4804   		leal	4(%eax), %ecx
 3099 21a0 8B45F4   		movl	-12(%ebp), %eax
 3100 21a3 8B502C   		movl	44(%eax), %edx
 3101 21a6 89D0     		movl	%edx, %eax
 3102 21a8 C1E002   		sall	$2, %eax
 3103 21ab 01D0     		addl	%edx, %eax
 3104 21ad C1E002   		sall	$2, %eax
 3105 21b0 8B55F0   		movl	-16(%ebp), %edx
 3106 21b3 69D28C01 		imull	$396, %edx, %edx
 3106      0000
 3107 21b9 01D0     		addl	%edx, %eax
 3108 21bb 05200000 		addl	$_cpuTaskCtrl, %eax
 3108      00
 3109 21c0 894C2404 		movl	%ecx, 4(%esp)
 3110 21c4 890424   		movl	%eax, (%esp)
 3111 21c7 E8000000 		call	_vListInsertEnd
 3111      00
 3112 21cc EB13     		jmp	L202
 3113              	L200:
 3114 21ce 8B45F0   		movl	-16(%ebp), %eax
 3115 21d1 8B048500 		movl	_pxCurrentTCB(,%eax,4), %eax
 3115      000000
 3116 21d8 8B502C   		movl	44(%eax), %edx
 3117 21db 8B45F4   		movl	-12(%ebp), %eax
 3118 21de 89502C   		movl	%edx, 44(%eax)
 3119              	L202:
 3120 21e1 8B450C   		movl	12(%ebp), %eax
 3121 21e4 89442404 		movl	%eax, 4(%esp)
 3122 21e8 8B45F0   		movl	-16(%ebp), %eax
 3123 21eb 890424   		movl	%eax, (%esp)
 3124 21ee E874F0FF 		call	_vTaskLockGive
 3124      FF
 3125              	L198:
 3126 21f3 C9       		leave
 3127              		.cfi_restore 5
 3128              		.cfi_def_cfa 4, 4
 3129 21f4 C3       		ret
 3130              		.cfi_endproc
 3131              	LFE41:
 3132              		.globl	_vTaskPriorityDisinherit
 3133              		.def	_vTaskPriorityDisinherit;	.scl	2;	.type	32;	.endef
 3134              	_vTaskPriorityDisinherit:
 3135              	LFB42:
 3136              		.cfi_startproc
 3137 21f5 55       		pushl	%ebp
 3138              		.cfi_def_cfa_offset 8
 3139              		.cfi_offset 5, -8
 3140 21f6 89E5     		movl	%esp, %ebp
 3141              		.cfi_def_cfa_register 5
 3142 21f8 83EC28   		subl	$40, %esp
 3143 21fb 8B4508   		movl	8(%ebp), %eax
 3144 21fe 8945F4   		movl	%eax, -12(%ebp)
 3145 2201 837DF400 		cmpl	$0, -12(%ebp)
 3146 2205 0F84E900 		je	L203
 3146      0000
 3147 220b 8B45F4   		movl	-12(%ebp), %eax
 3148 220e 8B502C   		movl	44(%eax), %edx
 3149 2211 8B45F4   		movl	-12(%ebp), %eax
 3150 2214 8B404C   		movl	76(%eax), %eax
 3151 2217 39C2     		cmpl	%eax, %edx
 3152 2219 0F84D500 		je	L203
 3152      0000
 3153 221f 8B45F4   		movl	-12(%ebp), %eax
 3154 2222 0FB64044 		movzbl	68(%eax), %eax
 3155 2226 0FB6C0   		movzbl	%al, %eax
 3156 2229 8945F0   		movl	%eax, -16(%ebp)
 3157 222c 8B450C   		movl	12(%ebp), %eax
 3158 222f 89442404 		movl	%eax, 4(%esp)
 3159 2233 8B45F0   		movl	-16(%ebp), %eax
 3160 2236 890424   		movl	%eax, (%esp)
 3161 2239 E8FCEFFF 		call	_vTaskLockTake
 3161      FF
 3162 223e 8B45F4   		movl	-12(%ebp), %eax
 3163 2241 83C004   		addl	$4, %eax
 3164 2244 890424   		movl	%eax, (%esp)
 3165 2247 E8000000 		call	_vListRemove
 3165      00
 3166 224c 8B45F4   		movl	-12(%ebp), %eax
 3167 224f 8B504C   		movl	76(%eax), %edx
 3168 2252 8B45F4   		movl	-12(%ebp), %eax
 3169 2255 89502C   		movl	%edx, 44(%eax)
 3170 2258 8B45F4   		movl	-12(%ebp), %eax
 3171 225b 8B402C   		movl	44(%eax), %eax
 3172 225e BA0A0000 		movl	$10, %edx
 3172      00
 3173 2263 29C2     		subl	%eax, %edx
 3174 2265 8B45F4   		movl	-12(%ebp), %eax
 3175 2268 895018   		movl	%edx, 24(%eax)
 3176 226b 8B45F4   		movl	-12(%ebp), %eax
 3177 226e 8B502C   		movl	44(%eax), %edx
 3178 2271 8B45F0   		movl	-16(%ebp), %eax
 3179 2274 69C08C01 		imull	$396, %eax, %eax
 3179      0000
 3180 227a 05600100 		addl	$_cpuTaskCtrl+320, %eax
 3180      00
 3181 227f 8B4004   		movl	4(%eax), %eax
 3182 2282 39C2     		cmpl	%eax, %edx
 3183 2284 762A     		jbe	L205
 3184 2286 8B45F4   		movl	-12(%ebp), %eax
 3185 2289 8B402C   		movl	44(%eax), %eax
 3186 228c 8B55F0   		movl	-16(%ebp), %edx
 3187 228f 69D28C01 		imull	$396, %edx, %edx
 3187      0000
 3188 2295 81C24001 		addl	$320, %edx
 3188      0000
 3189 229b 81C22000 		addl	$_cpuTaskCtrl, %edx
 3189      0000
 3190 22a1 83C204   		addl	$4, %edx
 3191 22a4 89442404 		movl	%eax, 4(%esp)
 3192 22a8 891424   		movl	%edx, (%esp)
 3193 22ab E8000000 		call	_atomic32Set
 3193      00
 3194              	L205:
 3195 22b0 8B45F4   		movl	-12(%ebp), %eax
 3196 22b3 8D4804   		leal	4(%eax), %ecx
 3197 22b6 8B45F4   		movl	-12(%ebp), %eax
 3198 22b9 8B502C   		movl	44(%eax), %edx
 3199 22bc 89D0     		movl	%edx, %eax
 3200 22be C1E002   		sall	$2, %eax
 3201 22c1 01D0     		addl	%edx, %eax
 3202 22c3 C1E002   		sall	$2, %eax
 3203 22c6 8B55F0   		movl	-16(%ebp), %edx
 3204 22c9 69D28C01 		imull	$396, %edx, %edx
 3204      0000
 3205 22cf 01D0     		addl	%edx, %eax
 3206 22d1 05200000 		addl	$_cpuTaskCtrl, %eax
 3206      00
 3207 22d6 894C2404 		movl	%ecx, 4(%esp)
 3208 22da 890424   		movl	%eax, (%esp)
 3209 22dd E8000000 		call	_vListInsertEnd
 3209      00
 3210 22e2 8B450C   		movl	12(%ebp), %eax
 3211 22e5 89442404 		movl	%eax, 4(%esp)
 3212 22e9 8B45F0   		movl	-16(%ebp), %eax
 3213 22ec 890424   		movl	%eax, (%esp)
 3214 22ef E873EFFF 		call	_vTaskLockGive
 3214      FF
 3215              	L203:
 3216 22f4 C9       		leave
 3217              		.cfi_restore 5
 3218              		.cfi_def_cfa 4, 4
 3219 22f5 C3       		ret
 3220              		.cfi_endproc
 3221              	LFE42:
 3222              		.globl	_vTaskDataInit
 3223              		.def	_vTaskDataInit;	.scl	2;	.type	32;	.endef
 3224              	_vTaskDataInit:
 3225              	LFB43:
 3226              		.cfi_startproc
 3227 22f6 55       		pushl	%ebp
 3228              		.cfi_def_cfa_offset 8
 3229              		.cfi_offset 5, -8
 3230 22f7 89E5     		movl	%esp, %ebp
 3231              		.cfi_def_cfa_register 5
 3232 22f9 83EC38   		subl	$56, %esp
 3233 22fc 8B4508   		movl	8(%ebp), %eax
 3234 22ff 8845E4   		movb	%al, -28(%ebp)
 3235 2302 0FB60500 		movzbl	_bCpuCount, %eax
 3235      000000
 3236 2309 3C02     		cmpb	$2, %al
 3237 230b 7509     		jne	L207
 3238 230d C6050000 		movb	$1, _bCpuConfigured
 3238      000001
 3239 2314 EB07     		jmp	L208
 3240              	L207:
 3241 2316 C6050000 		movb	$2, _bCpuConfigured
 3241      000002
 3242              	L208:
 3243 231d E8000000 		call	_vPortDataInit
 3243      00
 3244 2322 C7442408 		movl	$1584, 8(%esp)
 3244      30060000 
 3245 232a C7442404 		movl	$0, 4(%esp)
 3245      00000000 
 3246 2332 C7042420 		movl	$_cpuTaskCtrl, (%esp)
 3246      000000
 3247 2339 E8000000 		call	_memset
 3247      00
 3248 233e C7442408 		movl	$16, 8(%esp)
 3248      10000000 
 3249 2346 C7442404 		movl	$0, 4(%esp)
 3249      00000000 
 3250 234e C7042400 		movl	$_pxCurrentTCB, (%esp)
 3250      000000
 3251 2355 E8000000 		call	_memset
 3251      00
 3252 235a C7442408 		movl	$16, 8(%esp)
 3252      10000000 
 3253 2362 C7442404 		movl	$0, 4(%esp)
 3253      00000000 
 3254 236a C7042400 		movl	$_idleCount, (%esp)
 3254      000000
 3255 2371 E8000000 		call	_memset
 3255      00
 3256 2376 C745F400 		movl	$0, -12(%ebp)
 3256      000000
 3257 237d E9DA0000 		jmp	L209
 3257      00
 3258              	L210:
 3259 2382 8B45F4   		movl	-12(%ebp), %eax
 3260 2385 69C08C01 		imull	$396, %eax, %eax
 3260      0000
 3261 238b 05500100 		addl	$336, %eax
 3261      00
 3262 2390 05200000 		addl	$_cpuTaskCtrl, %eax
 3262      00
 3263 2395 C7442404 		movl	$1, 4(%esp)
 3263      01000000 
 3264 239d 890424   		movl	%eax, (%esp)
 3265 23a0 E8000000 		call	_atomic32Set
 3265      00
 3266 23a5 8B45F4   		movl	-12(%ebp), %eax
 3267 23a8 69C08C01 		imull	$396, %eax, %eax
 3267      0000
 3268 23ae 05400100 		addl	$320, %eax
 3268      00
 3269 23b3 05200000 		addl	$_cpuTaskCtrl, %eax
 3269      00
 3270 23b8 83C00C   		addl	$12, %eax
 3271 23bb C7442404 		movl	$1, 4(%esp)
 3271      01000000 
 3272 23c3 890424   		movl	%eax, (%esp)
 3273 23c6 E8000000 		call	_atomic32Set
 3273      00
 3274 23cb 8B45F4   		movl	-12(%ebp), %eax
 3275 23ce 69C08C01 		imull	$396, %eax, %eax
 3275      0000
 3276 23d4 05400100 		addl	$320, %eax
 3276      00
 3277 23d9 05200000 		addl	$_cpuTaskCtrl, %eax
 3277      00
 3278 23de 83C008   		addl	$8, %eax
 3279 23e1 C7442404 		movl	$0, 4(%esp)
 3279      00000000 
 3280 23e9 890424   		movl	%eax, (%esp)
 3281 23ec E8000000 		call	_atomic32Set
 3281      00
 3282 23f1 8B45F4   		movl	-12(%ebp), %eax
 3283 23f4 69C08C01 		imull	$396, %eax, %eax
 3283      0000
 3284 23fa 05400100 		addl	$320, %eax
 3284      00
 3285 23ff 05200000 		addl	$_cpuTaskCtrl, %eax
 3285      00
 3286 2404 C7442404 		movl	$0, 4(%esp)
 3286      00000000 
 3287 240c 890424   		movl	%eax, (%esp)
 3288 240f E8000000 		call	_atomic32Set
 3288      00
 3289 2414 8B45F4   		movl	-12(%ebp), %eax
 3290 2417 69C08C01 		imull	$396, %eax, %eax
 3290      0000
 3291 241d 05400100 		addl	$320, %eax
 3291      00
 3292 2422 05200000 		addl	$_cpuTaskCtrl, %eax
 3292      00
 3293 2427 83C004   		addl	$4, %eax
 3294 242a C7442404 		movl	$0, 4(%esp)
 3294      00000000 
 3295 2432 890424   		movl	%eax, (%esp)
 3296 2435 E8000000 		call	_atomic32Set
 3296      00
 3297 243a 8B45F4   		movl	-12(%ebp), %eax
 3298 243d 69C08C01 		imull	$396, %eax, %eax
 3298      0000
 3299 2443 05600100 		addl	$352, %eax
 3299      00
 3300 2448 05200000 		addl	$_cpuTaskCtrl, %eax
 3300      00
 3301 244d 83C004   		addl	$4, %eax
 3302 2450 890424   		movl	%eax, (%esp)
 3303 2453 E8000000 		call	_spinLockInit
 3303      00
 3304 2458 8345F401 		addl	$1, -12(%ebp)
 3305              	L209:
 3306 245c 837DF403 		cmpl	$3, -12(%ebp)
 3307 2460 0F8E1CFF 		jle	L210
 3307      FFFF
 3308 2466 C9       		leave
 3309              		.cfi_restore 5
 3310              		.cfi_def_cfa 4, 4
 3311 2467 C3       		ret
 3312              		.cfi_endproc
 3313              	LFE43:
 3314              		.def	_pxPortInitialiseStack;	.scl	2;	.type	32;	.endef
 3315              		.def	_atomic32Inc;	.scl	2;	.type	32;	.endef
 3316              		.def	_atomic32Get;	.scl	2;	.type	32;	.endef
 3317              		.def	_atomic32Set;	.scl	2;	.type	32;	.endef
 3318              		.def	_vListInsertEnd;	.scl	2;	.type	32;	.endef
 3319              		.def	_vPortYieldCPU;	.scl	2;	.type	32;	.endef
 3320              		.def	_sPortGetCurrentCPU;	.scl	2;	.type	32;	.endef
 3321              		.def	_vListRemove;	.scl	2;	.type	32;	.endef
 3322              		.def	_vListInsert;	.scl	2;	.type	32;	.endef
 3323              		.def	_sprintf;	.scl	2;	.type	32;	.endef
 3324              		.def	_xPortStartScheduler;	.scl	2;	.type	32;	.endef
 3325              		.def	_vDelay;	.scl	2;	.type	32;	.endef
 3326              		.def	_vPortEndScheduler;	.scl	2;	.type	32;	.endef
 3327              		.def	_atomic32Dec;	.scl	2;	.type	32;	.endef
 3328              		.def	_sysGetTimestamp;	.scl	2;	.type	32;	.endef
 3329              		.def	_spinLockTake;	.scl	2;	.type	32;	.endef
 3330              		.def	_spinLockGive;	.scl	2;	.type	32;	.endef
 3331              		.def	_vPortSetContextSwitching;	.scl	2;	.type	32;	.endef
 3332              		.def	_strncpy;	.scl	2;	.type	32;	.endef
 3333              		.def	_vListInitialiseItem;	.scl	2;	.type	32;	.endef
 3334              		.def	_vListInitialise;	.scl	2;	.type	32;	.endef
 3335              		.def	_pvPortMalloc;	.scl	2;	.type	32;	.endef
 3336              		.def	_vPortFree;	.scl	2;	.type	32;	.endef
 3337              		.def	_memset;	.scl	2;	.type	32;	.endef
 3338              		.def	_strcat;	.scl	2;	.type	32;	.endef
 3339              		.def	_vPortDataInit;	.scl	2;	.type	32;	.endef
 3340              		.def	_spinLockInit;	.scl	2;	.type	32;	.endef