   1              		.file	"port.c"
   2              	.lcomm _cpuStatus,128,32
   3              		.data
   4              		.align 4
   5              	_loapicBase:
   6 0000 0000E0FE 		.long	-18874368
   7              		.text
   8              		.globl	_sPortGetCurrentCPU
   9              		.def	_sPortGetCurrentCPU;	.scl	2;	.type	32;	.endef
  10              	_sPortGetCurrentCPU:
  11              	LFB0:
  12              		.cfi_startproc
  13 0000 55       		pushl	%ebp
  14              		.cfi_def_cfa_offset 8
  15              		.cfi_offset 5, -8
  16 0001 89E5     		movl	%esp, %ebp
  17              		.cfi_def_cfa_register 5
  18 0003 83EC18   		subl	$24, %esp
  19 0006 E8000000 		call	_lapicGetId
  19      00
  20 000b 8845F3   		movb	%al, -13(%ebp)
  21 000e C745F400 		movl	$0, -12(%ebp)
  21      000000
  22 0015 EB19     		jmp	L2
  23              	L5:
  24 0017 8B45F4   		movl	-12(%ebp), %eax
  25 001a 05000000 		addl	$_abApicId, %eax
  25      00
  26 001f 0FB600   		movzbl	(%eax), %eax
  27 0022 3A45F3   		cmpb	-13(%ebp), %al
  28 0025 7505     		jne	L3
  29 0027 8B45F4   		movl	-12(%ebp), %eax
  30 002a EB18     		jmp	L4
  31              	L3:
  32 002c 8345F401 		addl	$1, -12(%ebp)
  33              	L2:
  34 0030 0FB60500 		movzbl	_bCpuConfigured, %eax
  34      000000
  35 0037 0FB6C0   		movzbl	%al, %eax
  36 003a 3B45F4   		cmpl	-12(%ebp), %eax
  37 003d 7FD8     		jg	L5
  38 003f B8000000 		movl	$0, %eax
  38      00
  39              	L4:
  40 0044 C9       		leave
  41              		.cfi_restore 5
  42              		.cfi_def_cfa 4, 4
  43 0045 C3       		ret
  44              		.cfi_endproc
  45              	LFE0:
  46              		.globl	_vPortYieldCPU
  47              		.def	_vPortYieldCPU;	.scl	2;	.type	32;	.endef
  48              	_vPortYieldCPU:
  49              	LFB1:
  50              		.cfi_startproc
  51 0046 55       		pushl	%ebp
  52              		.cfi_def_cfa_offset 8
  53              		.cfi_offset 5, -8
  54 0047 89E5     		movl	%esp, %ebp
  55              		.cfi_def_cfa_register 5
  56 0049 83EC28   		subl	$40, %esp
  57 004c E8AFFFFF 		call	_sPortGetCurrentCPU
  57      FF
  58 0051 8945F4   		movl	%eax, -12(%ebp)
  59 0054 0FB60500 		movzbl	_bCpuConfigured, %eax
  59      000000
  60 005b 0FB6C0   		movzbl	%al, %eax
  61 005e 3B4508   		cmpl	8(%ebp), %eax
  62 0061 7E5E     		jle	L6
  63 0063 8B4508   		movl	8(%ebp), %eax
  64 0066 C1E005   		sall	$5, %eax
  65 0069 05000000 		addl	$_cpuStatus, %eax
  65      00
  66 006e 83C00C   		addl	$12, %eax
  67 0071 C7442404 		movl	$1, 4(%esp)
  67      01000000 
  68 0079 890424   		movl	%eax, (%esp)
  69 007c E8000000 		call	_atomic32Set
  69      00
  70 0081 8B4508   		movl	8(%ebp), %eax
  71 0084 C1E005   		sall	$5, %eax
  72 0087 83C010   		addl	$16, %eax
  73 008a 05000000 		addl	$_cpuStatus, %eax
  73      00
  74 008f 890424   		movl	%eax, (%esp)
  75 0092 E8000000 		call	_atomic32Inc
  75      00
  76 0097 8B4508   		movl	8(%ebp), %eax
  77 009a 3B45F4   		cmpl	-12(%ebp), %eax
  78 009d 7420     		je	L8
  79 009f 8B4508   		movl	8(%ebp), %eax
  80 00a2 05000000 		addl	$_abApicId, %eax
  80      00
  81 00a7 0FB600   		movzbl	(%eax), %eax
  82 00aa 0FB6C0   		movzbl	%al, %eax
  83 00ad C7442404 		movl	$65, 4(%esp)
  83      41000000 
  84 00b5 890424   		movl	%eax, (%esp)
  85 00b8 E8000000 		call	_sysSendIpi
  85      00
  86 00bd EB02     		jmp	L6
  87              	L8:
  88              	/APP
  89              	 # 285 "../../Source/portable/GCC/CUTE/port.c" 1
  90 00bf CD41     		int $0x41
  91              	 # 0 "" 2
  92              	/NO_APP
  93              	L6:
  94 00c1 C9       		leave
  95              		.cfi_restore 5
  96              		.cfi_def_cfa 4, 4
  97 00c2 C3       		ret
  98              		.cfi_endproc
  99              	LFE1:
 100              		.globl	_vPortSetContextSwitching
 101              		.def	_vPortSetContextSwitching;	.scl	2;	.type	32;	.endef
 102              	_vPortSetContextSwitching:
 103              	LFB2:
 104              		.cfi_startproc
 105 00c3 55       		pushl	%ebp
 106              		.cfi_def_cfa_offset 8
 107              		.cfi_offset 5, -8
 108 00c4 89E5     		movl	%esp, %ebp
 109              		.cfi_def_cfa_register 5
 110 00c6 83EC18   		subl	$24, %esp
 111 00c9 0FB60500 		movzbl	_bCpuConfigured, %eax
 111      000000
 112 00d0 0FB6C0   		movzbl	%al, %eax
 113 00d3 3B4508   		cmpl	8(%ebp), %eax
 114 00d6 7E2E     		jle	L9
 115 00d8 837D0C00 		cmpl	$0, 12(%ebp)
 116 00dc 7415     		je	L11
 117 00de 8B4508   		movl	8(%ebp), %eax
 118 00e1 C1E005   		sall	$5, %eax
 119 00e4 05000000 		addl	$_cpuStatus, %eax
 119      00
 120 00e9 890424   		movl	%eax, (%esp)
 121 00ec E8000000 		call	_atomic32Dec
 121      00
 122 00f1 EB13     		jmp	L9
 123              	L11:
 124 00f3 8B4508   		movl	8(%ebp), %eax
 125 00f6 C1E005   		sall	$5, %eax
 126 00f9 05000000 		addl	$_cpuStatus, %eax
 126      00
 127 00fe 890424   		movl	%eax, (%esp)
 128 0101 E8000000 		call	_atomic32Inc
 128      00
 129              	L9:
 130 0106 C9       		leave
 131              		.cfi_restore 5
 132              		.cfi_def_cfa 4, 4
 133 0107 C3       		ret
 134              		.cfi_endproc
 135              	LFE2:
 136              		.def	_prvGenApTick;	.scl	3;	.type	32;	.endef
 137              	_prvGenApTick:
 138              	LFB3:
 139              		.cfi_startproc
 140 0108 55       		pushl	%ebp
 141              		.cfi_def_cfa_offset 8
 142              		.cfi_offset 5, -8
 143 0109 89E5     		movl	%esp, %ebp
 144              		.cfi_def_cfa_register 5
 145 010b 83EC28   		subl	$40, %esp
 146 010e C745F401 		movl	$1, -12(%ebp)
 146      000000
 147 0115 EB38     		jmp	L13
 148              	L14:
 149 0117 8B45F4   		movl	-12(%ebp), %eax
 150 011a 05000000 		addl	$_abApicId, %eax
 150      00
 151 011f 0FB600   		movzbl	(%eax), %eax
 152 0122 0FB6C0   		movzbl	%al, %eax
 153 0125 C7442404 		movl	$68, 4(%esp)
 153      44000000 
 154 012d 890424   		movl	%eax, (%esp)
 155 0130 E8000000 		call	_sysIpiTick
 155      00
 156 0135 8B45F4   		movl	-12(%ebp), %eax
 157 0138 C1E005   		sall	$5, %eax
 158 013b 05000000 		addl	$_cpuStatus, %eax
 158      00
 159 0140 83C008   		addl	$8, %eax
 160 0143 890424   		movl	%eax, (%esp)
 161 0146 E8000000 		call	_atomic32Inc
 161      00
 162 014b 8345F401 		addl	$1, -12(%ebp)
 163              	L13:
 164 014f 0FB60500 		movzbl	_bCpuConfigured, %eax
 164      000000
 165 0156 0FB6C0   		movzbl	%al, %eax
 166 0159 3B45F4   		cmpl	-12(%ebp), %eax
 167 015c 7FB9     		jg	L14
 168 015e C9       		leave
 169              		.cfi_restore 5
 170              		.cfi_def_cfa 4, 4
 171 015f C3       		ret
 172              		.cfi_endproc
 173              	LFE3:
 174              		.def	_prvPreemptiveTick;	.scl	3;	.type	32;	.endef
 175              	_prvPreemptiveTick:
 176              	LFB4:
 177              		.cfi_startproc
 178 0160 55       		pushl	%ebp
 179              		.cfi_def_cfa_offset 8
 180              		.cfi_offset 5, -8
 181 0161 89E5     		movl	%esp, %ebp
 182              		.cfi_def_cfa_register 5
 183 0163 83EC28   		subl	$40, %esp
 184 0166 E895FEFF 		call	_sPortGetCurrentCPU
 184      FF
 185 016b 8945F0   		movl	%eax, -16(%ebp)
 186 016e 8B45F0   		movl	-16(%ebp), %eax
 187 0171 C1E005   		sall	$5, %eax
 188 0174 05000000 		addl	$_cpuStatus, %eax
 188      00
 189 0179 890424   		movl	%eax, (%esp)
 190 017c E8000000 		call	_atomic32Get
 190      00
 191 0181 85C0     		testl	%eax, %eax
 192 0183 0F85DE00 		jne	L15
 192      0000
 193 0189 8B45F0   		movl	-16(%ebp), %eax
 194 018c 8B048500 		movl	_pxCurrentTCB(,%eax,4), %eax
 194      000000
 195 0193 8945F4   		movl	%eax, -12(%ebp)
 196              	/APP
 197              	 # 381 "../../Source/portable/GCC/CUTE/port.c" 1
 198 0196 89E1     		movl %esp,%ecx
 199              	 # 0 "" 2
 200              	 # 386 "../../Source/portable/GCC/CUTE/port.c" 1
 201 0198 83C128   		addl $40, %ecx
 202              	 # 0 "" 2
 203              	/NO_APP
 204 019b 8B55F0   		movl	-16(%ebp), %edx
 205              	/APP
 206              	 # 390 "../../Source/portable/GCC/CUTE/port.c" 1
 207 019e 8D049500 		lea _pxCurrentTCB(,%edx,4), %eax
 207      000000
 208              	 # 0 "" 2
 209              	 # 391 "../../Source/portable/GCC/CUTE/port.c" 1
 210 01a5 8B18     		movl (%eax),%ebx
 211              	 # 0 "" 2
 212              	 # 392 "../../Source/portable/GCC/CUTE/port.c" 1
 213 01a7 890B     		movl %ecx, (%ebx)
 214              	 # 0 "" 2
 215              	/NO_APP
 216 01a9 8B45F0   		movl	-16(%ebp), %eax
 217 01ac C1E005   		sall	$5, %eax
 218 01af 05000000 		addl	$_cpuStatus, %eax
 218      00
 219 01b4 83C004   		addl	$4, %eax
 220 01b7 890424   		movl	%eax, (%esp)
 221 01ba E8000000 		call	_atomic32Inc
 221      00
 222 01bf 8B45F0   		movl	-16(%ebp), %eax
 223 01c2 85C0     		testl	%eax, %eax
 224 01c4 7505     		jne	L17
 225 01c6 E83DFFFF 		call	_prvGenApTick
 225      FF
 226              	L17:
 227 01cb 8B45F0   		movl	-16(%ebp), %eax
 228 01ce C7442404 		movl	$1, 4(%esp)
 228      01000000 
 229 01d6 890424   		movl	%eax, (%esp)
 230 01d9 E8000000 		call	_vTaskLockTake
 230      00
 231 01de 8B45F0   		movl	-16(%ebp), %eax
 232 01e1 890424   		movl	%eax, (%esp)
 233 01e4 E8000000 		call	_vTaskIncrementTick
 233      00
 234 01e9 8B45F0   		movl	-16(%ebp), %eax
 235 01ec 890424   		movl	%eax, (%esp)
 236 01ef E8000000 		call	_vTaskSwitchContext
 236      00
 237 01f4 8B45F0   		movl	-16(%ebp), %eax
 238 01f7 C7442404 		movl	$1, 4(%esp)
 238      01000000 
 239 01ff 890424   		movl	%eax, (%esp)
 240 0202 E8000000 		call	_vTaskLockGive
 240      00
 241 0207 8B45F0   		movl	-16(%ebp), %eax
 242 020a 8B048500 		movl	_pxCurrentTCB(,%eax,4), %eax
 242      000000
 243 0211 3B45F4   		cmpl	-12(%ebp), %eax
 244 0214 7451     		je	L15
 245 0216 8B55F0   		movl	-16(%ebp), %edx
 246              	/APP
 247              	 # 421 "../../Source/portable/GCC/CUTE/port.c" 1
 248 0219 8D049500 		lea _pxCurrentTCB(,%edx,4), %eax
 248      000000
 249              	 # 0 "" 2
 250              	 # 422 "../../Source/portable/GCC/CUTE/port.c" 1
 251 0220 8B18     		movl (%eax),%ebx
 252              	 # 0 "" 2
 253              	 # 423 "../../Source/portable/GCC/CUTE/port.c" 1
 254 0222 8B23     		movl (%ebx),%esp
 255              	 # 0 "" 2
 256              	/NO_APP
 257 0224 8B45F0   		movl	-16(%ebp), %eax
 258 0227 8B048500 		movl	_pxCurrentTCB(,%eax,4), %eax
 258      000000
 259 022e 890424   		movl	%eax, (%esp)
 260 0231 E8000000 		call	_vTaskGetFirstExecute
 260      00
 261 0236 6683F801 		cmpw	$1, %ax
 262 023a 7529     		jne	L18
 263 023c 8B45F0   		movl	-16(%ebp), %eax
 264 023f 8B048500 		movl	_pxCurrentTCB(,%eax,4), %eax
 264      000000
 265 0246 C7442404 		movl	$0, 4(%esp)
 265      00000000 
 266 024e 890424   		movl	%eax, (%esp)
 267 0251 E8000000 		call	_vTaskSetFirstExecute
 267      00
 268              	/APP
 269              	 # 433 "../../Source/portable/GCC/CUTE/port.c" 1
 270 0256 83C404   		add $4, %esp
 271              	 # 0 "" 2
 272              	 # 434 "../../Source/portable/GCC/CUTE/port.c" 1
 273 0259 8B4D04   		movl 4(%ebp),%ecx
 274              	 # 0 "" 2
 275              	 # 435 "../../Source/portable/GCC/CUTE/port.c" 1
 276 025c 894C2408 		movl  %ecx, 8(%esp)
 277              	 # 0 "" 2
 278              	 # 436 "../../Source/portable/GCC/CUTE/port.c" 1
 279 0260 5B       		popl	%ebx
 280              	 # 0 "" 2
 281              	 # 437 "../../Source/portable/GCC/CUTE/port.c" 1
 282 0261 5D       		popl	%ebp
 283              	 # 0 "" 2
 284              	 # 438 "../../Source/portable/GCC/CUTE/port.c" 1
 285 0262 C3       		ret
 286              	 # 0 "" 2
 287              	/NO_APP
 288 0263 EB02     		jmp	L15
 289              	L18:
 290              	/APP
 291              	 # 443 "../../Source/portable/GCC/CUTE/port.c" 1
 292 0265 5D       		popl	%ebp
 293              	 # 0 "" 2
 294              	 # 444 "../../Source/portable/GCC/CUTE/port.c" 1
 295 0266 C3       		ret
 296              	 # 0 "" 2
 297              	/NO_APP
 298              	L15:
 299 0267 C9       		leave
 300              		.cfi_restore 5
 301              		.cfi_def_cfa 4, 4
 302 0268 C3       		ret
 303              		.cfi_endproc
 304              	LFE4:
 305              		.def	_prvYieldProcessor;	.scl	3;	.type	32;	.endef
 306              	_prvYieldProcessor:
 307              	LFB5:
 308              		.cfi_startproc
 309 0269 55       		pushl	%ebp
 310              		.cfi_def_cfa_offset 8
 311              		.cfi_offset 5, -8
 312 026a 89E5     		movl	%esp, %ebp
 313              		.cfi_def_cfa_register 5
 314 026c 83EC28   		subl	$40, %esp
 315 026f E88CFDFF 		call	_sPortGetCurrentCPU
 315      FF
 316 0274 8945F0   		movl	%eax, -16(%ebp)
 317 0277 8B45F0   		movl	-16(%ebp), %eax
 318 027a C1E005   		sall	$5, %eax
 319 027d 05000000 		addl	$_cpuStatus, %eax
 319      00
 320 0282 890424   		movl	%eax, (%esp)
 321 0285 E8000000 		call	_atomic32Get
 321      00
 322 028a 85C0     		testl	%eax, %eax
 323 028c 0F85F000 		jne	L19
 323      0000
 324 0292 8B45F0   		movl	-16(%ebp), %eax
 325 0295 8B048500 		movl	_pxCurrentTCB(,%eax,4), %eax
 325      000000
 326 029c 8945F4   		movl	%eax, -12(%ebp)
 327              	/APP
 328              	 # 489 "../../Source/portable/GCC/CUTE/port.c" 1
 329 029f 89E1     		movl %esp,%ecx
 330              	 # 0 "" 2
 331              	 # 494 "../../Source/portable/GCC/CUTE/port.c" 1
 332 02a1 83C128   		addl $40, %ecx
 333              	 # 0 "" 2
 334              	/NO_APP
 335 02a4 8B55F0   		movl	-16(%ebp), %edx
 336              	/APP
 337              	 # 498 "../../Source/portable/GCC/CUTE/port.c" 1
 338 02a7 8D049500 		lea _pxCurrentTCB(,%edx,4), %eax
 338      000000
 339              	 # 0 "" 2
 340              	 # 499 "../../Source/portable/GCC/CUTE/port.c" 1
 341 02ae 8B18     		movl (%eax),%ebx
 342              	 # 0 "" 2
 343              	 # 500 "../../Source/portable/GCC/CUTE/port.c" 1
 344 02b0 890B     		movl %ecx, (%ebx)
 345              	 # 0 "" 2
 346              	/NO_APP
 347 02b2 8B45F0   		movl	-16(%ebp), %eax
 348 02b5 C1E005   		sall	$5, %eax
 349 02b8 05000000 		addl	$_cpuStatus, %eax
 349      00
 350 02bd 83C00C   		addl	$12, %eax
 351 02c0 C7442404 		movl	$0, 4(%esp)
 351      00000000 
 352 02c8 890424   		movl	%eax, (%esp)
 353 02cb E8000000 		call	_atomic32Set
 353      00
 354 02d0 85C0     		testl	%eax, %eax
 355 02d2 0F84AA00 		je	L19
 355      0000
 356 02d8 8B45F0   		movl	-16(%ebp), %eax
 357 02db C1E005   		sall	$5, %eax
 358 02de 83C010   		addl	$16, %eax
 359 02e1 05000000 		addl	$_cpuStatus, %eax
 359      00
 360 02e6 83C004   		addl	$4, %eax
 361 02e9 890424   		movl	%eax, (%esp)
 362 02ec E8000000 		call	_atomic32Inc
 362      00
 363 02f1 8B45F0   		movl	-16(%ebp), %eax
 364 02f4 C7442404 		movl	$1, 4(%esp)
 364      01000000 
 365 02fc 890424   		movl	%eax, (%esp)
 366 02ff E8000000 		call	_vTaskLockTake
 366      00
 367 0304 8B45F0   		movl	-16(%ebp), %eax
 368 0307 890424   		movl	%eax, (%esp)
 369 030a E8000000 		call	_vTaskSwitchContext
 369      00
 370 030f 8B45F0   		movl	-16(%ebp), %eax
 371 0312 C7442404 		movl	$1, 4(%esp)
 371      01000000 
 372 031a 890424   		movl	%eax, (%esp)
 373 031d E8000000 		call	_vTaskLockGive
 373      00
 374 0322 8B45F0   		movl	-16(%ebp), %eax
 375 0325 8B048500 		movl	_pxCurrentTCB(,%eax,4), %eax
 375      000000
 376 032c 3B45F4   		cmpl	-12(%ebp), %eax
 377 032f 7451     		je	L19
 378 0331 8B55F0   		movl	-16(%ebp), %edx
 379              	/APP
 380              	 # 516 "../../Source/portable/GCC/CUTE/port.c" 1
 381 0334 8D049500 		lea _pxCurrentTCB(,%edx,4), %eax
 381      000000
 382              	 # 0 "" 2
 383              	 # 517 "../../Source/portable/GCC/CUTE/port.c" 1
 384 033b 8B18     		movl (%eax),%ebx
 385              	 # 0 "" 2
 386              	 # 518 "../../Source/portable/GCC/CUTE/port.c" 1
 387 033d 8B23     		movl (%ebx),%esp
 388              	 # 0 "" 2
 389              	/NO_APP
 390 033f 8B45F0   		movl	-16(%ebp), %eax
 391 0342 8B048500 		movl	_pxCurrentTCB(,%eax,4), %eax
 391      000000
 392 0349 890424   		movl	%eax, (%esp)
 393 034c E8000000 		call	_vTaskGetFirstExecute
 393      00
 394 0351 6683F801 		cmpw	$1, %ax
 395 0355 7529     		jne	L21
 396 0357 8B45F0   		movl	-16(%ebp), %eax
 397 035a 8B048500 		movl	_pxCurrentTCB(,%eax,4), %eax
 397      000000
 398 0361 C7442404 		movl	$0, 4(%esp)
 398      00000000 
 399 0369 890424   		movl	%eax, (%esp)
 400 036c E8000000 		call	_vTaskSetFirstExecute
 400      00
 401              	/APP
 402              	 # 528 "../../Source/portable/GCC/CUTE/port.c" 1
 403 0371 83C404   		add $4, %esp
 404              	 # 0 "" 2
 405              	 # 529 "../../Source/portable/GCC/CUTE/port.c" 1
 406 0374 8B4D04   		movl 4(%ebp),%ecx
 407              	 # 0 "" 2
 408              	 # 530 "../../Source/portable/GCC/CUTE/port.c" 1
 409 0377 894C2408 		movl %ecx, 8(%esp)
 410              	 # 0 "" 2
 411              	 # 531 "../../Source/portable/GCC/CUTE/port.c" 1
 412 037b 5B       		popl %ebx
 413              	 # 0 "" 2
 414              	 # 532 "../../Source/portable/GCC/CUTE/port.c" 1
 415 037c 5D       		popl %ebp
 416              	 # 0 "" 2
 417              	 # 533 "../../Source/portable/GCC/CUTE/port.c" 1
 418 037d C3       		ret
 419              	 # 0 "" 2
 420              	/NO_APP
 421 037e EB02     		jmp	L19
 422              	L21:
 423              	/APP
 424              	 # 538 "../../Source/portable/GCC/CUTE/port.c" 1
 425 0380 5D       		popl %ebp
 426              	 # 0 "" 2
 427              	 # 539 "../../Source/portable/GCC/CUTE/port.c" 1
 428 0381 C3       		ret
 429              	 # 0 "" 2
 430              	/NO_APP
 431              	L19:
 432 0382 C9       		leave
 433              		.cfi_restore 5
 434              		.cfi_def_cfa 4, 4
 435 0383 C3       		ret
 436              		.cfi_endproc
 437              	LFE5:
 438              		.globl	_vPortEndScheduler
 439              		.def	_vPortEndScheduler;	.scl	2;	.type	32;	.endef
 440              	_vPortEndScheduler:
 441              	LFB6:
 442              		.cfi_startproc
 443 0384 55       		pushl	%ebp
 444              		.cfi_def_cfa_offset 8
 445              		.cfi_offset 5, -8
 446 0385 89E5     		movl	%esp, %ebp
 447              		.cfi_def_cfa_register 5
 448 0387 83EC28   		subl	$40, %esp
 449 038a C745F400 		movl	$0, -12(%ebp)
 449      000000
 450 0391 EB1F     		jmp	L23
 451              	L24:
 452 0393 8B45F4   		movl	-12(%ebp), %eax
 453 0396 C1E005   		sall	$5, %eax
 454 0399 05000000 		addl	$_cpuStatus, %eax
 454      00
 455 039e C7442404 		movl	$1, 4(%esp)
 455      01000000 
 456 03a6 890424   		movl	%eax, (%esp)
 457 03a9 E8000000 		call	_atomic32Set
 457      00
 458 03ae 8345F401 		addl	$1, -12(%ebp)
 459              	L23:
 460 03b2 0FB60500 		movzbl	_bCpuConfigured, %eax
 460      000000
 461 03b9 0FB6C0   		movzbl	%al, %eax
 462 03bc 3B45F4   		cmpl	-12(%ebp), %eax
 463 03bf 7FD2     		jg	L24
 464 03c1 A1000000 		movl	_loapicBase, %eax
 464      00
 465 03c6 05200300 		addl	$800, %eax
 465      00
 466 03cb 8B00     		movl	(%eax), %eax
 467 03cd 8945F0   		movl	%eax, -16(%ebp)
 468 03d0 814DF000 		orl	$65536, -16(%ebp)
 468      000100
 469 03d7 A1000000 		movl	_loapicBase, %eax
 469      00
 470 03dc 05200300 		addl	$800, %eax
 470      00
 471 03e1 8B55F0   		movl	-16(%ebp), %edx
 472 03e4 8910     		movl	%edx, (%eax)
 473 03e6 A1000000 		movl	_loapicBase, %eax
 473      00
 474 03eb 05800300 		addl	$896, %eax
 474      00
 475 03f0 C7000000 		movl	$0, (%eax)
 475      0000
 476 03f6 C9       		leave
 477              		.cfi_restore 5
 478              		.cfi_def_cfa 4, 4
 479 03f7 C3       		ret
 480              		.cfi_endproc
 481              	LFE6:
 482              		.def	_prvLoapicTimerConfig;	.scl	3;	.type	32;	.endef
 483              	_prvLoapicTimerConfig:
 484              	LFB7:
 485              		.cfi_startproc
 486 03f8 55       		pushl	%ebp
 487              		.cfi_def_cfa_offset 8
 488              		.cfi_offset 5, -8
 489 03f9 89E5     		movl	%esp, %ebp
 490              		.cfi_def_cfa_register 5
 491 03fb 83EC28   		subl	$40, %esp
 492 03fe E8FDFBFF 		call	_sPortGetCurrentCPU
 492      FF
 493 0403 8945F4   		movl	%eax, -12(%ebp)
 494 0406 837DF400 		cmpl	$0, -12(%ebp)
 495 040a 0F858C00 		jne	L26
 495      0000
 496 0410 837D0800 		cmpl	$0, 8(%ebp)
 497 0414 0F848200 		je	L26
 497      0000
 498 041a A1000000 		movl	_loapicBase, %eax
 498      00
 499 041f 05E00300 		addl	$992, %eax
 499      00
 500 0424 8B00     		movl	(%eax), %eax
 501 0426 8945F0   		movl	%eax, -16(%ebp)
 502 0429 8B45F0   		movl	-16(%ebp), %eax
 503 042c 83E0F0   		andl	$-16, %eax
 504 042f 83C80B   		orl	$11, %eax
 505 0432 8945F0   		movl	%eax, -16(%ebp)
 506 0435 A1000000 		movl	_loapicBase, %eax
 506      00
 507 043a 05E00300 		addl	$992, %eax
 507      00
 508 043f 8B55F0   		movl	-16(%ebp), %edx
 509 0442 8910     		movl	%edx, (%eax)
 510 0444 A1000000 		movl	_loapicBase, %eax
 510      00
 511 0449 05200300 		addl	$800, %eax
 511      00
 512 044e 8B00     		movl	(%eax), %eax
 513 0450 8945F0   		movl	%eax, -16(%ebp)
 514 0453 8165F000 		andl	$-196864, -16(%ebp)
 514      FFFCFF
 515 045a 814DF042 		orl	$131138, -16(%ebp)
 515      000200
 516 0461 A1000000 		movl	_loapicBase, %eax
 516      00
 517 0466 05200300 		addl	$800, %eax
 517      00
 518 046b 8B55F0   		movl	-16(%ebp), %edx
 519 046e 8910     		movl	%edx, (%eax)
 520 0470 8B4508   		movl	8(%ebp), %eax
 521 0473 8945E4   		movl	%eax, -28(%ebp)
 522 0476 BAD34D62 		movl	$274877907, %edx
 522      10
 523 047b 8B45E4   		movl	-28(%ebp), %eax
 524 047e F7E2     		mull	%edx
 525 0480 89D0     		movl	%edx, %eax
 526 0482 C1E806   		shrl	$6, %eax
 527 0485 83E801   		subl	$1, %eax
 528 0488 8945F0   		movl	%eax, -16(%ebp)
 529 048b A1000000 		movl	_loapicBase, %eax
 529      00
 530 0490 05800300 		addl	$896, %eax
 530      00
 531 0495 8B55F0   		movl	-16(%ebp), %edx
 532 0498 8910     		movl	%edx, (%eax)
 533 049a EB35     		jmp	L25
 534              	L26:
 535 049c A1000000 		movl	_loapicBase, %eax
 535      00
 536 04a1 05200300 		addl	$800, %eax
 536      00
 537 04a6 8B00     		movl	(%eax), %eax
 538 04a8 8945F0   		movl	%eax, -16(%ebp)
 539 04ab 814DF000 		orl	$65536, -16(%ebp)
 539      000100
 540 04b2 A1000000 		movl	_loapicBase, %eax
 540      00
 541 04b7 05200300 		addl	$800, %eax
 541      00
 542 04bc 8B55F0   		movl	-16(%ebp), %edx
 543 04bf 8910     		movl	%edx, (%eax)
 544 04c1 A1000000 		movl	_loapicBase, %eax
 544      00
 545 04c6 05800300 		addl	$896, %eax
 545      00
 546 04cb C7000000 		movl	$0, (%eax)
 546      0000
 547              	L25:
 548 04d1 C9       		leave
 549              		.cfi_restore 5
 550              		.cfi_def_cfa 4, 4
 551 04d2 C3       		ret
 552              		.cfi_endproc
 553              	LFE7:
 554              		.def	_prvLoapicIntrConfig;	.scl	3;	.type	32;	.endef
 555              	_prvLoapicIntrConfig:
 556              	LFB8:
 557              		.cfi_startproc
 558 04d3 55       		pushl	%ebp
 559              		.cfi_def_cfa_offset 8
 560              		.cfi_offset 5, -8
 561 04d4 89E5     		movl	%esp, %ebp
 562              		.cfi_def_cfa_register 5
 563 04d6 56       		pushl	%esi
 564 04d7 53       		pushl	%ebx
 565 04d8 83EC10   		subl	$16, %esp
 566              		.cfi_offset 6, -12
 567              		.cfi_offset 3, -16
 568 04db E820FBFF 		call	_sPortGetCurrentCPU
 568      FF
 569 04e0 8945F4   		movl	%eax, -12(%ebp)
 570 04e3 837DF400 		cmpl	$0, -12(%ebp)
 571 04e7 7420     		je	L29
 572 04e9 A1000000 		movl	_loapicBase, %eax
 572      00
 573 04ee 05500300 		addl	$848, %eax
 573      00
 574 04f3 C7000007 		movl	$1792, (%eax)
 574      0000
 575 04f9 A1000000 		movl	_loapicBase, %eax
 575      00
 576 04fe 05600300 		addl	$864, %eax
 576      00
 577 0503 C7000004 		movl	$1024, (%eax)
 577      0000
 578              	L29:
 579 0509 A1000000 		movl	_loapicBase, %eax
 579      00
 580 050e 05D00000 		addl	$208, %eax
 580      00
 581 0513 8B55F4   		movl	-12(%ebp), %edx
 582 0516 83C218   		addl	$24, %edx
 583 0519 BB010000 		movl	$1, %ebx
 583      00
 584 051e 89DE     		movl	%ebx, %esi
 585 0520 89D1     		movl	%edx, %ecx
 586 0522 D3E6     		sall	%cl, %esi
 587 0524 89F2     		movl	%esi, %edx
 588 0526 8910     		movl	%edx, (%eax)
 589 0528 83C410   		addl	$16, %esp
 590 052b 5B       		popl	%ebx
 591              		.cfi_restore 3
 592 052c 5E       		popl	%esi
 593              		.cfi_restore 6
 594 052d 5D       		popl	%ebp
 595              		.cfi_restore 5
 596              		.cfi_def_cfa 4, 4
 597 052e C3       		ret
 598              		.cfi_endproc
 599              	LFE8:
 600              		.def	_prvLoapicGetClkFreq;	.scl	3;	.type	32;	.endef
 601              	_prvLoapicGetClkFreq:
 602              	LFB9:
 603              		.cfi_startproc
 604 052f 55       		pushl	%ebp
 605              		.cfi_def_cfa_offset 8
 606              		.cfi_offset 5, -8
 607 0530 89E5     		movl	%esp, %ebp
 608              		.cfi_def_cfa_register 5
 609 0532 83EC38   		subl	$56, %esp
 610 0535 C745F4FF 		movl	$-1, -12(%ebp)
 610      FFFFFF
 611 053c A1000000 		movl	_loapicBase, %eax
 611      00
 612 0541 05E00300 		addl	$992, %eax
 612      00
 613 0546 8B00     		movl	(%eax), %eax
 614 0548 8945F0   		movl	%eax, -16(%ebp)
 615 054b 8B45F0   		movl	-16(%ebp), %eax
 616 054e 83E0F0   		andl	$-16, %eax
 617 0551 83C80B   		orl	$11, %eax
 618 0554 8945F0   		movl	%eax, -16(%ebp)
 619 0557 A1000000 		movl	_loapicBase, %eax
 619      00
 620 055c 05E00300 		addl	$992, %eax
 620      00
 621 0561 8B55F0   		movl	-16(%ebp), %edx
 622 0564 8910     		movl	%edx, (%eax)
 623 0566 A1000000 		movl	_loapicBase, %eax
 623      00
 624 056b 05800300 		addl	$896, %eax
 624      00
 625 0570 8B55F4   		movl	-12(%ebp), %edx
 626 0573 83EA01   		subl	$1, %edx
 627 0576 8910     		movl	%edx, (%eax)
 628 0578 C7442404 		movl	$182, 4(%esp)
 628      B6000000 
 629 0580 C7042443 		movl	$67, (%esp)
 629      000000
 630 0587 E8000000 		call	_sysOutPort8
 630      00
 631 058c C7442404 		movl	$255, 4(%esp)
 631      FF000000 
 632 0594 C7042442 		movl	$66, (%esp)
 632      000000
 633 059b E8000000 		call	_sysOutPort8
 633      00
 634 05a0 C7442404 		movl	$255, 4(%esp)
 634      FF000000 
 635 05a8 C7042442 		movl	$66, (%esp)
 635      000000
 636 05af E8000000 		call	_sysOutPort8
 636      00
 637 05b4 C7042461 		movl	$97, (%esp)
 637      000000
 638 05bb E8000000 		call	_sysInPort8
 638      00
 639 05c0 83C801   		orl	$1, %eax
 640 05c3 0FB6C0   		movzbl	%al, %eax
 641 05c6 89442404 		movl	%eax, 4(%esp)
 642 05ca C7042461 		movl	$97, (%esp)
 642      000000
 643 05d1 E8000000 		call	_sysOutPort8
 643      00
 644 05d6 A1000000 		movl	_loapicBase, %eax
 644      00
 645 05db 05900300 		addl	$912, %eax
 645      00
 646 05e0 8B00     		movl	(%eax), %eax
 647 05e2 8B55F4   		movl	-12(%ebp), %edx
 648 05e5 89D1     		movl	%edx, %ecx
 649 05e7 29C1     		subl	%eax, %ecx
 650 05e9 89C8     		movl	%ecx, %eax
 651 05eb 8945EC   		movl	%eax, -20(%ebp)
 652 05ee C645EB80 		movb	$-128, -21(%ebp)
 653              	L31:
 654 05f2 C7442404 		movl	$232, 4(%esp)
 654      E8000000 
 655 05fa C7042443 		movl	$67, (%esp)
 655      000000
 656 0601 E8000000 		call	_sysOutPort8
 656      00
 657 0606 C7042442 		movl	$66, (%esp)
 657      000000
 658 060d E8000000 		call	_sysInPort8
 658      00
 659 0612 83E080   		andl	$-128, %eax
 660 0615 8845EA   		movb	%al, -22(%ebp)
 661 0618 0FB645EB 		movzbl	-21(%ebp), %eax
 662 061c 3A45EA   		cmpb	-22(%ebp), %al
 663 061f 74D1     		je	L31
 664              	L32:
 665 0621 C7442404 		movl	$128, 4(%esp)
 665      80000000 
 666 0629 C7042443 		movl	$67, (%esp)
 666      000000
 667 0630 E8000000 		call	_sysOutPort8
 667      00
 668 0635 C7042442 		movl	$66, (%esp)
 668      000000
 669 063c E8000000 		call	_sysInPort8
 669      00
 670 0641 0FB6C0   		movzbl	%al, %eax
 671 0644 8945E4   		movl	%eax, -28(%ebp)
 672 0647 C7042442 		movl	$66, (%esp)
 672      000000
 673 064e E8000000 		call	_sysInPort8
 673      00
 674 0653 0FB6C0   		movzbl	%al, %eax
 675 0656 C1E008   		sall	$8, %eax
 676 0659 0145E4   		addl	%eax, -28(%ebp)
 677 065c 817DE4F2 		cmpl	$11762, -28(%ebp)
 677      2D0000
 678 0663 77BC     		ja	L32
 679 0665 A1000000 		movl	_loapicBase, %eax
 679      00
 680 066a 05900300 		addl	$912, %eax
 680      00
 681 066f 8B00     		movl	(%eax), %eax
 682 0671 8B55F4   		movl	-12(%ebp), %edx
 683 0674 89D1     		movl	%edx, %ecx
 684 0676 29C1     		subl	%eax, %ecx
 685 0678 89C8     		movl	%ecx, %eax
 686 067a 8945E0   		movl	%eax, -32(%ebp)
 687 067d C7042461 		movl	$97, (%esp)
 687      000000
 688 0684 E8000000 		call	_sysInPort8
 688      00
 689 0689 0FB6C0   		movzbl	%al, %eax
 690 068c 25FE0000 		andl	$254, %eax
 690      00
 691 0691 89442404 		movl	%eax, 4(%esp)
 692 0695 C7042461 		movl	$97, (%esp)
 692      000000
 693 069c E8000000 		call	_sysOutPort8
 693      00
 694 06a1 8B45EC   		movl	-20(%ebp), %eax
 695 06a4 8B55E0   		movl	-32(%ebp), %edx
 696 06a7 29C2     		subl	%eax, %edx
 697 06a9 89D0     		movl	%edx, %eax
 698 06ab C1E002   		sall	$2, %eax
 699 06ae 01D0     		addl	%edx, %eax
 700 06b0 C1E002   		sall	$2, %eax
 701 06b3 C9       		leave
 702              		.cfi_restore 5
 703              		.cfi_def_cfa 4, 4
 704 06b4 C3       		ret
 705              		.cfi_endproc
 706              	LFE9:
 707              		.def	_xPortStartAPScheduling;	.scl	3;	.type	32;	.endef
 708              	_xPortStartAPScheduling:
 709              	LFB10:
 710              		.cfi_startproc
 711 06b5 55       		pushl	%ebp
 712              		.cfi_def_cfa_offset 8
 713              		.cfi_offset 5, -8
 714 06b6 89E5     		movl	%esp, %ebp
 715              		.cfi_def_cfa_register 5
 716 06b8 53       		pushl	%ebx
 717 06b9 83EC24   		subl	$36, %esp
 718              		.cfi_offset 3, -12
 719 06bc E83FF9FF 		call	_sPortGetCurrentCPU
 719      FF
 720 06c1 8945F4   		movl	%eax, -12(%ebp)
 721 06c4 837DF400 		cmpl	$0, -12(%ebp)
 722 06c8 7E71     		jle	L34
 723 06ca E804FEFF 		call	_prvLoapicIntrConfig
 723      FF
 724 06cf C7042400 		movl	$0, (%esp)
 724      000000
 725 06d6 E81DFDFF 		call	_prvLoapicTimerConfig
 725      FF
 726 06db 8B45F4   		movl	-12(%ebp), %eax
 727 06de 8B048500 		movl	_pxCurrentTCB(,%eax,4), %eax
 727      000000
 728 06e5 C7442404 		movl	$0, 4(%esp)
 728      00000000 
 729 06ed 890424   		movl	%eax, (%esp)
 730 06f0 E8000000 		call	_vTaskSetFirstExecute
 730      00
 731 06f5 8B45F4   		movl	-12(%ebp), %eax
 732 06f8 890424   		movl	%eax, (%esp)
 733 06fb E8000000 		call	_vTaskStartSchedulerRunning
 733      00
 734 0700 8B45F4   		movl	-12(%ebp), %eax
 735 0703 C1E005   		sall	$5, %eax
 736 0706 05000000 		addl	$_cpuStatus, %eax
 736      00
 737 070b 890424   		movl	%eax, (%esp)
 738 070e E8000000 		call	_atomic32Dec
 738      00
 739 0713 8B55F4   		movl	-12(%ebp), %edx
 740              	/APP
 741              	 # 773 "../../Source/portable/GCC/CUTE/port.c" 1
 742 0716 9C       		pushf 
 743 0717 6658     		pop %ax 
 744 0719 6625FFBF 		and $0xbfff,%ax 
 745 071d 6650     		pushw %ax 
 746 071f 9D       		popf 
 747 0720 8D049500 		lea _pxCurrentTCB(,%edx,4), %eax
 747      000000
 748 0727 8B18     		movl (%eax),%ebx
 749 0729 8B23     		movl (%ebx),%esp
 750 072b 83C404   		add $0x4, %esp 
 751 072e 5B       		popl %ebx
 752 072f 5D       		popl %ebp
 753 0730 83C404   		add $0x4, %esp 
 754 0733 0FA9     		popl %gs
 755 0735 0FA1     		popl %fs
 756 0737 07       		popl %es
 757 0738 1F       		popl %ds
 758 0739 61       		popal
 759 073a CF       		iret
 760              	 # 0 "" 2
 761              	/NO_APP
 762              	L34:
 763 073b 83C424   		addl	$36, %esp
 764 073e 5B       		popl	%ebx
 765              		.cfi_restore 3
 766 073f 5D       		popl	%ebp
 767              		.cfi_restore 5
 768              		.cfi_def_cfa 4, 4
 769 0740 C3       		ret
 770              		.cfi_endproc
 771              	LFE10:
 772              		.globl	_xPortStartScheduler
 773              		.def	_xPortStartScheduler;	.scl	2;	.type	32;	.endef
 774              	_xPortStartScheduler:
 775              	LFB11:
 776              		.cfi_startproc
 777 0741 55       		pushl	%ebp
 778              		.cfi_def_cfa_offset 8
 779              		.cfi_offset 5, -8
 780 0742 89E5     		movl	%esp, %ebp
 781              		.cfi_def_cfa_register 5
 782 0744 53       		pushl	%ebx
 783 0745 83EC24   		subl	$36, %esp
 784              		.cfi_offset 3, -12
 785 0748 E8B3F8FF 		call	_sPortGetCurrentCPU
 785      FF
 786 074d 8945F0   		movl	%eax, -16(%ebp)
 787 0750 E8DAFDFF 		call	_prvLoapicGetClkFreq
 787      FF
 788 0755 8945EC   		movl	%eax, -20(%ebp)
 789 0758 C745E842 		movl	$66, -24(%ebp)
 789      000000
 790 075f 8B45E8   		movl	-24(%ebp), %eax
 791 0762 0FB6C0   		movzbl	%al, %eax
 792 0765 C7442404 		movl	$_prvPreemptiveTick, 4(%esp)
 792      60010000 
 793 076d 890424   		movl	%eax, (%esp)
 794 0770 E8000000 		call	_sysInstallUserHandler
 794      00
 795 0775 C7442404 		movl	$_prvYieldProcessor, 4(%esp)
 795      69020000 
 796 077d C7042441 		movl	$65, (%esp)
 796      000000
 797 0784 E8000000 		call	_sysInstallUserHandler
 797      00
 798 0789 C7442404 		movl	$_xPortStartAPScheduling, 4(%esp)
 798      B5060000 
 799 0791 C7042443 		movl	$67, (%esp)
 799      000000
 800 0798 E8000000 		call	_sysInstallUserHandler
 800      00
 801 079d C7442404 		movl	$_prvPreemptiveTick, 4(%esp)
 801      60010000 
 802 07a5 C7042444 		movl	$68, (%esp)
 802      000000
 803 07ac E8000000 		call	_sysInstallUserHandler
 803      00
 804 07b1 E81DFDFF 		call	_prvLoapicIntrConfig
 804      FF
 805 07b6 8B45EC   		movl	-20(%ebp), %eax
 806 07b9 890424   		movl	%eax, (%esp)
 807 07bc E837FCFF 		call	_prvLoapicTimerConfig
 807      FF
 808 07c1 8B45F0   		movl	-16(%ebp), %eax
 809 07c4 890424   		movl	%eax, (%esp)
 810 07c7 E8000000 		call	_vTaskStartSchedulerRunning
 810      00
 811 07cc 8B45F0   		movl	-16(%ebp), %eax
 812 07cf 8B048500 		movl	_pxCurrentTCB(,%eax,4), %eax
 812      000000
 813 07d6 C7442404 		movl	$0, 4(%esp)
 813      00000000 
 814 07de 890424   		movl	%eax, (%esp)
 815 07e1 E8000000 		call	_vTaskSetFirstExecute
 815      00
 816 07e6 C645F701 		movb	$1, -9(%ebp)
 817 07ea EB3B     		jmp	L37
 818              	L39:
 819 07ec 0FB645F7 		movzbl	-9(%ebp), %eax
 820 07f0 0FB68000 		movzbl	_abApicId(%eax), %eax
 820      000000
 821 07f7 0FB6C0   		movzbl	%al, %eax
 822 07fa C7442404 		movl	$67, 4(%esp)
 822      43000000 
 823 0802 890424   		movl	%eax, (%esp)
 824 0805 E8000000 		call	_sysSendIpi
 824      00
 825 080a 90       		nop
 826              	L38:
 827 080b 0FB645F7 		movzbl	-9(%ebp), %eax
 828 080f C1E005   		sall	$5, %eax
 829 0812 05000000 		addl	$_cpuStatus, %eax
 829      00
 830 0817 890424   		movl	%eax, (%esp)
 831 081a E8000000 		call	_atomic32Get
 831      00
 832 081f 85C0     		testl	%eax, %eax
 833 0821 75E8     		jne	L38
 834 0823 8045F701 		addb	$1, -9(%ebp)
 835              	L37:
 836 0827 0FB60500 		movzbl	_bCpuConfigured, %eax
 836      000000
 837 082e 3845F7   		cmpb	%al, -9(%ebp)
 838 0831 72B9     		jb	L39
 839 0833 C7042400 		movl	$_cpuStatus, (%esp)
 839      000000
 840 083a E8000000 		call	_atomic32Dec
 840      00
 841 083f 8B55F0   		movl	-16(%ebp), %edx
 842              	/APP
 843              	 # 882 "../../Source/portable/GCC/CUTE/port.c" 1
 844 0842 9C       		pushf 
 845 0843 6658     		pop %ax 
 846 0845 6625FFBF 		and $0xbfff,%ax 
 847 0849 6650     		pushw %ax 
 848 084b 9D       		popf 
 849 084c 8D049500 		lea _pxCurrentTCB(,%edx,4), %eax
 849      000000
 850 0853 8B18     		movl (%eax),%ebx
 851 0855 8B23     		movl (%ebx),%esp
 852 0857 83C404   		add $0x4, %esp 
 853 085a 5B       		popl %ebx
 854 085b 5D       		popl %ebp
 855 085c 83C404   		add $0x4, %esp 
 856 085f 0FA9     		popl %gs
 857 0861 0FA1     		popl %fs
 858 0863 07       		popl %es
 859 0864 1F       		popl %ds
 860 0865 61       		popal
 861 0866 CF       		iret
 862              	 # 0 "" 2
 863              	/NO_APP
 864 0867 B8010000 		movl	$1, %eax
 864      00
 865 086c 83C424   		addl	$36, %esp
 866 086f 5B       		popl	%ebx
 867              		.cfi_restore 3
 868 0870 5D       		popl	%ebp
 869              		.cfi_restore 5
 870              		.cfi_def_cfa 4, 4
 871 0871 C3       		ret
 872              		.cfi_endproc
 873              	LFE11:
 874              		.globl	_vPortDataInit
 875              		.def	_vPortDataInit;	.scl	2;	.type	32;	.endef
 876              	_vPortDataInit:
 877              	LFB12:
 878              		.cfi_startproc
 879 0872 55       		pushl	%ebp
 880              		.cfi_def_cfa_offset 8
 881              		.cfi_offset 5, -8
 882 0873 89E5     		movl	%esp, %ebp
 883              		.cfi_def_cfa_register 5
 884 0875 83EC28   		subl	$40, %esp
 885 0878 C7442408 		movl	$128, 8(%esp)
 885      80000000 
 886 0880 C7442404 		movl	$0, 4(%esp)
 886      00000000 
 887 0888 C7042400 		movl	$_cpuStatus, (%esp)
 887      000000
 888 088f E8000000 		call	_memset
 888      00
 889 0894 C645F700 		movb	$0, -9(%ebp)
 890 0898 EB20     		jmp	L42
 891              	L43:
 892 089a 0FB645F7 		movzbl	-9(%ebp), %eax
 893 089e C1E005   		sall	$5, %eax
 894 08a1 05000000 		addl	$_cpuStatus, %eax
 894      00
 895 08a6 C7442404 		movl	$1, 4(%esp)
 895      01000000 
 896 08ae 890424   		movl	%eax, (%esp)
 897 08b1 E8000000 		call	_atomic32Set
 897      00
 898 08b6 8045F701 		addb	$1, -9(%ebp)
 899              	L42:
 900 08ba 807DF703 		cmpb	$3, -9(%ebp)
 901 08be 76DA     		jbe	L43
 902 08c0 C9       		leave
 903              		.cfi_restore 5
 904              		.cfi_def_cfa 4, 4
 905 08c1 C3       		ret
 906              		.cfi_endproc
 907              	LFE12:
 908              		.def	_lapicGetId;	.scl	2;	.type	32;	.endef
 909              		.def	_atomic32Set;	.scl	2;	.type	32;	.endef
 910              		.def	_atomic32Inc;	.scl	2;	.type	32;	.endef
 911              		.def	_sysSendIpi;	.scl	2;	.type	32;	.endef
 912              		.def	_atomic32Dec;	.scl	2;	.type	32;	.endef
 913              		.def	_sysIpiTick;	.scl	2;	.type	32;	.endef
 914              		.def	_atomic32Get;	.scl	2;	.type	32;	.endef
 915              		.def	_vTaskLockTake;	.scl	2;	.type	32;	.endef
 916              		.def	_vTaskIncrementTick;	.scl	2;	.type	32;	.endef
 917              		.def	_vTaskSwitchContext;	.scl	2;	.type	32;	.endef
 918              		.def	_vTaskLockGive;	.scl	2;	.type	32;	.endef
 919              		.def	_vTaskGetFirstExecute;	.scl	2;	.type	32;	.endef
 920              		.def	_vTaskSetFirstExecute;	.scl	2;	.type	32;	.endef
 921              		.def	_sysOutPort8;	.scl	2;	.type	32;	.endef
 922              		.def	_sysInPort8;	.scl	2;	.type	32;	.endef
 923              		.def	_vTaskStartSchedulerRunning;	.scl	2;	.type	32;	.endef
 924              		.def	_sysInstallUserHandler;	.scl	2;	.type	32;	.endef
 925 08c2 9090     		.def	_memset;	.scl	2;	.type	32;	.endef