   1              		.file	"heap_2.c"
   2              		.data
   3              		.align 4
   4              	_pxHeap:
   5 0000 00000004 		.long	67108864
   6              		.section .rdata,"dr"
   7              		.align 2
   8              	_heapSTRUCT_SIZE:
   9 0000 0C00     		.word	12
  10              	.lcomm _xStart,8,4
  11              	.lcomm _xEnd,8,4
  12              	.lcomm _xFreeBytesRemaining,4,4
  13 0002 0000     		.text
  14              		.def	_prvHeapInit;	.scl	3;	.type	32;	.endef
  15              	_prvHeapInit:
  16              	LFB0:
  17              		.cfi_startproc
  18 0000 55       		pushl	%ebp
  19              		.cfi_def_cfa_offset 8
  20              		.cfi_offset 5, -8
  21 0001 89E5     		movl	%esp, %ebp
  22              		.cfi_def_cfa_register 5
  23 0003 83EC10   		subl	$16, %esp
  24 0006 A1000000 		movl	_pxHeap, %eax
  24      00
  25 000b A3000000 		movl	%eax, _xStart
  25      00
  26 0010 C7050400 		movl	$0, _xStart+4
  26      00000000 
  26      0000
  27 001a C7050C00 		movl	$524288, _xEnd+4
  27      00000000 
  27      0800
  28 0024 C7050800 		movl	$0, _xEnd
  28      00000000 
  28      0000
  29 002e A1000000 		movl	_pxHeap, %eax
  29      00
  30 0033 8945FC   		movl	%eax, -4(%ebp)
  31 0036 8B45FC   		movl	-4(%ebp), %eax
  32 0039 C7400400 		movl	$524288, 4(%eax)
  32      000800
  33 0040 8B45FC   		movl	-4(%ebp), %eax
  34 0043 C7000800 		movl	$_xEnd, (%eax)
  34      0000
  35 0049 C7051000 		movl	$524288, _xFreeBytesRemaining
  35      00000000 
  35      0800
  36 0053 C9       		leave
  37              		.cfi_restore 5
  38              		.cfi_def_cfa 4, 4
  39 0054 C3       		ret
  40              		.cfi_endproc
  41              	LFE0:
  42              		.globl	_pvPortMalloc
  43              		.def	_pvPortMalloc;	.scl	2;	.type	32;	.endef
  44              	_pvPortMalloc:
  45              	LFB1:
  46              		.cfi_startproc
  47 0055 55       		pushl	%ebp
  48              		.cfi_def_cfa_offset 8
  49              		.cfi_offset 5, -8
  50 0056 89E5     		movl	%esp, %ebp
  51              		.cfi_def_cfa_register 5
  52 0058 83EC28   		subl	$40, %esp
  53 005b C745EC00 		movl	$0, -20(%ebp)
  53      000000
  54 0062 E8000000 		call	_vTaskSuspendAll
  54      00
  55 0067 A1140000 		movl	_xHeapHasBeenInitialised.2003, %eax
  55      00
  56 006c 85C0     		testl	%eax, %eax
  57 006e 750F     		jne	L3
  58 0070 E88BFFFF 		call	_prvHeapInit
  58      FF
  59 0075 C7051400 		movl	$1, _xHeapHasBeenInitialised.2003
  59      00000100 
  59      0000
  60              	L3:
  61 007f 837D0800 		cmpl	$0, 8(%ebp)
  62 0083 7423     		je	L4
  63 0085 0FB70500 		movzwl	_heapSTRUCT_SIZE, %eax
  63      000000
  64 008c 0FB7C0   		movzwl	%ax, %eax
  65 008f 014508   		addl	%eax, 8(%ebp)
  66 0092 8B4508   		movl	8(%ebp), %eax
  67 0095 83E003   		andl	$3, %eax
  68 0098 85C0     		testl	%eax, %eax
  69 009a 740C     		je	L4
  70 009c 8B4508   		movl	8(%ebp), %eax
  71 009f 83E0FC   		andl	$-4, %eax
  72 00a2 83C004   		addl	$4, %eax
  73 00a5 894508   		movl	%eax, 8(%ebp)
  74              	L4:
  75 00a8 837D0800 		cmpl	$0, 8(%ebp)
  76 00ac 0F84F100 		je	L5
  76      0000
  77 00b2 817D08FF 		cmpl	$524287, 8(%ebp)
  77      FF0700
  78 00b9 0F87E400 		ja	L5
  78      0000
  79 00bf C745F000 		movl	$_xStart, -16(%ebp)
  79      000000
  80 00c6 A1000000 		movl	_xStart, %eax
  80      00
  81 00cb 8945F4   		movl	%eax, -12(%ebp)
  82 00ce EB0E     		jmp	L6
  83              	L8:
  84 00d0 8B45F4   		movl	-12(%ebp), %eax
  85 00d3 8945F0   		movl	%eax, -16(%ebp)
  86 00d6 8B45F4   		movl	-12(%ebp), %eax
  87 00d9 8B00     		movl	(%eax), %eax
  88 00db 8945F4   		movl	%eax, -12(%ebp)
  89              	L6:
  90 00de 8B45F4   		movl	-12(%ebp), %eax
  91 00e1 8B4004   		movl	4(%eax), %eax
  92 00e4 3B4508   		cmpl	8(%ebp), %eax
  93 00e7 7309     		jae	L7
  94 00e9 8B45F4   		movl	-12(%ebp), %eax
  95 00ec 8B00     		movl	(%eax), %eax
  96 00ee 85C0     		testl	%eax, %eax
  97 00f0 75DE     		jne	L8
  98              	L7:
  99 00f2 817DF408 		cmpl	$_xEnd, -12(%ebp)
  99      000000
 100 00f9 0F84A400 		je	L5
 100      0000
 101 00ff 8B45F0   		movl	-16(%ebp), %eax
 102 0102 8B10     		movl	(%eax), %edx
 103 0104 0FB70500 		movzwl	_heapSTRUCT_SIZE, %eax
 103      000000
 104 010b 0FB7C0   		movzwl	%ax, %eax
 105 010e 01D0     		addl	%edx, %eax
 106 0110 8945EC   		movl	%eax, -20(%ebp)
 107 0113 8B45F4   		movl	-12(%ebp), %eax
 108 0116 8B10     		movl	(%eax), %edx
 109 0118 8B45F0   		movl	-16(%ebp), %eax
 110 011b 8910     		movl	%edx, (%eax)
 111 011d 8B45F4   		movl	-12(%ebp), %eax
 112 0120 8B4004   		movl	4(%eax), %eax
 113 0123 89C2     		movl	%eax, %edx
 114 0125 2B5508   		subl	8(%ebp), %edx
 115 0128 0FB70500 		movzwl	_heapSTRUCT_SIZE, %eax
 115      000000
 116 012f 0FB7C0   		movzwl	%ax, %eax
 117 0132 01C0     		addl	%eax, %eax
 118 0134 39C2     		cmpl	%eax, %edx
 119 0136 765E     		jbe	L9
 120 0138 8B4508   		movl	8(%ebp), %eax
 121 013b 8B55F4   		movl	-12(%ebp), %edx
 122 013e 01D0     		addl	%edx, %eax
 123 0140 8945E4   		movl	%eax, -28(%ebp)
 124 0143 8B45F4   		movl	-12(%ebp), %eax
 125 0146 8B4004   		movl	4(%eax), %eax
 126 0149 89C2     		movl	%eax, %edx
 127 014b 2B5508   		subl	8(%ebp), %edx
 128 014e 8B45E4   		movl	-28(%ebp), %eax
 129 0151 895004   		movl	%edx, 4(%eax)
 130 0154 8B45F4   		movl	-12(%ebp), %eax
 131 0157 8B5508   		movl	8(%ebp), %edx
 132 015a 895004   		movl	%edx, 4(%eax)
 133 015d 8B45E4   		movl	-28(%ebp), %eax
 134 0160 8B4004   		movl	4(%eax), %eax
 135 0163 8945E0   		movl	%eax, -32(%ebp)
 136 0166 C745E800 		movl	$_xStart, -24(%ebp)
 136      000000
 137 016d EB08     		jmp	L10
 138              	L11:
 139 016f 8B45E8   		movl	-24(%ebp), %eax
 140 0172 8B00     		movl	(%eax), %eax
 141 0174 8945E8   		movl	%eax, -24(%ebp)
 142              	L10:
 143 0177 8B45E8   		movl	-24(%ebp), %eax
 144 017a 8B00     		movl	(%eax), %eax
 145 017c 8B4004   		movl	4(%eax), %eax
 146 017f 3B45E0   		cmpl	-32(%ebp), %eax
 147 0182 72EB     		jb	L11
 148 0184 8B45E8   		movl	-24(%ebp), %eax
 149 0187 8B10     		movl	(%eax), %edx
 150 0189 8B45E4   		movl	-28(%ebp), %eax
 151 018c 8910     		movl	%edx, (%eax)
 152 018e 8B45E8   		movl	-24(%ebp), %eax
 153 0191 8B55E4   		movl	-28(%ebp), %edx
 154 0194 8910     		movl	%edx, (%eax)
 155              	L9:
 156 0196 A1100000 		movl	_xFreeBytesRemaining, %eax
 156      00
 157 019b 2B4508   		subl	8(%ebp), %eax
 158 019e A3100000 		movl	%eax, _xFreeBytesRemaining
 158      00
 159              	L5:
 160 01a3 E8000000 		call	_xTaskResumeAll
 160      00
 161 01a8 8B45EC   		movl	-20(%ebp), %eax
 162 01ab C9       		leave
 163              		.cfi_restore 5
 164              		.cfi_def_cfa 4, 4
 165 01ac C3       		ret
 166              		.cfi_endproc
 167              	LFE1:
 168              		.globl	_vPortFree
 169              		.def	_vPortFree;	.scl	2;	.type	32;	.endef
 170              	_vPortFree:
 171              	LFB2:
 172              		.cfi_startproc
 173 01ad 55       		pushl	%ebp
 174              		.cfi_def_cfa_offset 8
 175              		.cfi_offset 5, -8
 176 01ae 89E5     		movl	%esp, %ebp
 177              		.cfi_def_cfa_register 5
 178 01b0 83EC18   		subl	$24, %esp
 179 01b3 8B4508   		movl	8(%ebp), %eax
 180 01b6 8945F0   		movl	%eax, -16(%ebp)
 181 01b9 837D0800 		cmpl	$0, 8(%ebp)
 182 01bd 746A     		je	L13
 183 01bf 0FB70500 		movzwl	_heapSTRUCT_SIZE, %eax
 183      000000
 184 01c6 0FB7C0   		movzwl	%ax, %eax
 185 01c9 F7D8     		negl	%eax
 186 01cb 0145F0   		addl	%eax, -16(%ebp)
 187 01ce 8B45F0   		movl	-16(%ebp), %eax
 188 01d1 8945EC   		movl	%eax, -20(%ebp)
 189 01d4 E8000000 		call	_vTaskSuspendAll
 189      00
 190 01d9 8B45EC   		movl	-20(%ebp), %eax
 191 01dc 8B4004   		movl	4(%eax), %eax
 192 01df 8945E8   		movl	%eax, -24(%ebp)
 193 01e2 C745F400 		movl	$_xStart, -12(%ebp)
 193      000000
 194 01e9 EB08     		jmp	L15
 195              	L16:
 196 01eb 8B45F4   		movl	-12(%ebp), %eax
 197 01ee 8B00     		movl	(%eax), %eax
 198 01f0 8945F4   		movl	%eax, -12(%ebp)
 199              	L15:
 200 01f3 8B45F4   		movl	-12(%ebp), %eax
 201 01f6 8B00     		movl	(%eax), %eax
 202 01f8 8B4004   		movl	4(%eax), %eax
 203 01fb 3B45E8   		cmpl	-24(%ebp), %eax
 204 01fe 72EB     		jb	L16
 205 0200 8B45F4   		movl	-12(%ebp), %eax
 206 0203 8B10     		movl	(%eax), %edx
 207 0205 8B45EC   		movl	-20(%ebp), %eax
 208 0208 8910     		movl	%edx, (%eax)
 209 020a 8B45F4   		movl	-12(%ebp), %eax
 210 020d 8B55EC   		movl	-20(%ebp), %edx
 211 0210 8910     		movl	%edx, (%eax)
 212 0212 8B45EC   		movl	-20(%ebp), %eax
 213 0215 8B5004   		movl	4(%eax), %edx
 214 0218 A1100000 		movl	_xFreeBytesRemaining, %eax
 214      00
 215 021d 01D0     		addl	%edx, %eax
 216 021f A3100000 		movl	%eax, _xFreeBytesRemaining
 216      00
 217 0224 E8000000 		call	_xTaskResumeAll
 217      00
 218              	L13:
 219 0229 C9       		leave
 220              		.cfi_restore 5
 221              		.cfi_def_cfa 4, 4
 222 022a C3       		ret
 223              		.cfi_endproc
 224              	LFE2:
 225              		.globl	_xPortGetFreeHeapSize
 226              		.def	_xPortGetFreeHeapSize;	.scl	2;	.type	32;	.endef
 227              	_xPortGetFreeHeapSize:
 228              	LFB3:
 229              		.cfi_startproc
 230 022b 55       		pushl	%ebp
 231              		.cfi_def_cfa_offset 8
 232              		.cfi_offset 5, -8
 233 022c 89E5     		movl	%esp, %ebp
 234              		.cfi_def_cfa_register 5
 235 022e A1100000 		movl	_xFreeBytesRemaining, %eax
 235      00
 236 0233 5D       		popl	%ebp
 237              		.cfi_restore 5
 238              		.cfi_def_cfa 4, 4
 239 0234 C3       		ret
 240              		.cfi_endproc
 241              	LFE3:
 242              		.globl	_vPortInitialiseBlocks
 243              		.def	_vPortInitialiseBlocks;	.scl	2;	.type	32;	.endef
 244              	_vPortInitialiseBlocks:
 245              	LFB4:
 246              		.cfi_startproc
 247 0235 55       		pushl	%ebp
 248              		.cfi_def_cfa_offset 8
 249              		.cfi_offset 5, -8
 250 0236 89E5     		movl	%esp, %ebp
 251              		.cfi_def_cfa_register 5
 252 0238 5D       		popl	%ebp
 253              		.cfi_restore 5
 254              		.cfi_def_cfa 4, 4
 255 0239 C3       		ret
 256              		.cfi_endproc
 257              	LFE4:
 258              	.lcomm _xHeapHasBeenInitialised.2003,4,4
 259              		.def	_vTaskSuspendAll;	.scl	2;	.type	32;	.endef
 260 023a 9090     		.def	_xTaskResumeAll;	.scl	2;	.type	32;	.endef